(dp0
S'user.ssevova.ZHdarkPhoton_v00.364246.Sherpa_222_NNPDF30NNLO_WZZ_3l3v_EW6.e5887_s3126_r9364_p3870_MiniNtuple.root'
p1
(lp2
S'/gpfs/slac/atlas/fs1/d/ssevova/dark-photon-atlas/ntuples/v00/user.ssevova.ZHdarkPhoton_v00.364246.Sherpa_222_NNPDF30NNLO_WZZ_3l3v_EW6.e5887_s3126_r9364_p3870_MiniNtuple.root/user.ssevova.20993979._000001.MiniNtuple.root'
p3
asS'user.ssevova.ZHdarkPhoton_v00.364507.Sherpa_222_NNPDF30NNLO_mumugamma_pty_35_70.e5928_s3126_r9364_p3872_MiniNtuple.root'
p4
(lp5
S'/gpfs/slac/atlas/fs1/d/ssevova/dark-photon-atlas/ntuples/v00/user.ssevova.ZHdarkPhoton_v00.364507.Sherpa_222_NNPDF30NNLO_mumugamma_pty_35_70.e5928_s3126_r9364_p3872_MiniNtuple.root/user.ssevova.20993960._000001.MiniNtuple.root'
p6
asS'user.ssevova.ZHdarkPhoton_v00.364243.Sherpa_222_NNPDF30NNLO_WWZ_4l2v_EW6.e5887_s3126_r9364_p3872_MiniNtuple.root'
p7
(lp8
S'/gpfs/slac/atlas/fs1/d/ssevova/dark-photon-atlas/ntuples/v00/user.ssevova.ZHdarkPhoton_v00.364243.Sherpa_222_NNPDF30NNLO_WWZ_4l2v_EW6.e5887_s3126_r9364_p3872_MiniNtuple.root/user.ssevova.20993976._000001.MiniNtuple.root'
p9
asS'user.ssevova.ZHdarkPhoton_v00.364285.Sherpa_222_NNPDF30NNLO_llvvjj_EW6.e6055_s3126_r9364_p3870_MiniNtuple.root'
p10
(lp11
S'/gpfs/slac/atlas/fs1/d/ssevova/dark-photon-atlas/ntuples/v00/user.ssevova.ZHdarkPhoton_v00.364285.Sherpa_222_NNPDF30NNLO_llvvjj_EW6.e6055_s3126_r9364_p3870_MiniNtuple.root/user.ssevova.20993971._000001.MiniNtuple.root'
p12
asS'user.ssevova.ZHdarkPhoton_v00.364242.Sherpa_222_NNPDF30NNLO_WWW_3l3v_EW6.e5887_s3126_r9364_p3870_MiniNtuple.root'
p13
(lp14
S'/gpfs/slac/atlas/fs1/d/ssevova/dark-photon-atlas/ntuples/v00/user.ssevova.ZHdarkPhoton_v00.364242.Sherpa_222_NNPDF30NNLO_WWW_3l3v_EW6.e5887_s3126_r9364_p3870_MiniNtuple.root/user.ssevova.20993975._000001.MiniNtuple.root'
p15
asS'user.ssevova.ZHdarkPhoton_v00.364248.Sherpa_222_NNPDF30NNLO_ZZZ_4l2v_EW6.e5887_s3126_r9364_p3872_MiniNtuple.root'
p16
(lp17
S'/gpfs/slac/atlas/fs1/d/ssevova/dark-photon-atlas/ntuples/v00/user.ssevova.ZHdarkPhoton_v00.364248.Sherpa_222_NNPDF30NNLO_ZZZ_4l2v_EW6.e5887_s3126_r9364_p3872_MiniNtuple.root/user.ssevova.20993981._000001.MiniNtuple.root'
p18
asS'user.ssevova.ZHdarkPhoton_v00.364245.Sherpa_222_NNPDF30NNLO_WZZ_5l1v_EW6.e5887_s3126_r9364_p3872_MiniNtuple.root'
p19
(lp20
S'/gpfs/slac/atlas/fs1/d/ssevova/dark-photon-atlas/ntuples/v00/user.ssevova.ZHdarkPhoton_v00.364245.Sherpa_222_NNPDF30NNLO_WZZ_5l1v_EW6.e5887_s3126_r9364_p3872_MiniNtuple.root/user.ssevova.20993978._000001.MiniNtuple.root'
p21
asS'user.ssevova.ZHdarkPhoton_v00.364244.Sherpa_222_NNPDF30NNLO_WWZ_2l4v_EW6.e5887_s3126_r9364_p3870_MiniNtuple.root'
p22
(lp23
S'/gpfs/slac/atlas/fs1/d/ssevova/dark-photon-atlas/ntuples/v00/user.ssevova.ZHdarkPhoton_v00.364244.Sherpa_222_NNPDF30NNLO_WWZ_2l4v_EW6.e5887_s3126_r9364_p3870_MiniNtuple.root/user.ssevova.20993977._000001.MiniNtuple.root'
p24
asS'user.ssevova.ZHdarkPhoton_v00.364247.Sherpa_222_NNPDF30NNLO_ZZZ_6l0v_EW6.e5887_s3126_r9364_p3872_MiniNtuple.root'
p25
(lp26
S'/gpfs/slac/atlas/fs1/d/ssevova/dark-photon-atlas/ntuples/v00/user.ssevova.ZHdarkPhoton_v00.364247.Sherpa_222_NNPDF30NNLO_ZZZ_6l0v_EW6.e5887_s3126_r9364_p3872_MiniNtuple.root/user.ssevova.20993980._000001.MiniNtuple.root'
p27
as.