(dp0
S'user.schae.v15Loose.410012.PowhegPythiaEvtGen_P2012_singletop_tchan_lept_antitop.e3824_s3126_r9364_p3575_MiniNtuple.root      '
p1
(lp2
S'root://fax.mwt2.org:1094//pnfs/uchicago.edu/atlaslocalgroupdisk/rucio/user/schae/bd/ec/user.schae.15676738._000001.MiniNtuple.root'
p3
aS'root://fax.mwt2.org:1094//pnfs/uchicago.edu/atlaslocalgroupdisk/rucio/user/schae/c6/43/user.schae.15676738._000002.MiniNtuple.root'
p4
asS'user.schae.v15Loose.364169.Sherpa_221_NNPDF30NNLO_Wmunu_MAXHTPTV1000_E_CMS.e5340_s3126_r9364_p3575_MiniNtuple.root            '
p5
(lp6
S'root://fax.mwt2.org:1094//pnfs/uchicago.edu/atlaslocalgroupdisk/rucio/user/schae/a9/75/user.schae.15676099._000001.MiniNtuple.root'
p7
aS'root://fax.mwt2.org:1094//pnfs/uchicago.edu/atlaslocalgroupdisk/rucio/user/schae/34/06/user.schae.15676099._000002.MiniNtuple.root'
p8
aS'root://fax.mwt2.org:1094//pnfs/uchicago.edu/atlaslocalgroupdisk/rucio/user/schae/49/c2/user.schae.15676099._000003.MiniNtuple.root'
p9
asS'user.schae.v15Loose.364165.Sherpa_221_NNPDF30NNLO_Wmunu_MAXHTPTV280_500_CVetoBVeto.e5340_s3126_r9364_p3575_MiniNtuple.root    '
p10
(lp11
S'root://fax.mwt2.org:1094//pnfs/uchicago.edu/atlaslocalgroupdisk/rucio/user/schae/14/d8/user.schae.15676060._000001.MiniNtuple.root'
p12
aS'root://fax.mwt2.org:1094//pnfs/uchicago.edu/atlaslocalgroupdisk/rucio/user/schae/ed/e2/user.schae.15676060._000002.MiniNtuple.root'
p13
aS'root://fax.mwt2.org:1094//pnfs/uchicago.edu/atlaslocalgroupdisk/rucio/user/schae/54/4d/user.schae.15676060._000003.MiniNtuple.root'
p14
asS'user.schae.v15Loose.363489.Sherpa_221_NNPDF30NNLO_WlvZqq.e5525_s3126_r9364_p3575_MiniNtuple.root                              '
p15
(lp16
S'root://fax.mwt2.org:1094//pnfs/uchicago.edu/atlaslocalgroupdisk/rucio/user/schae/fc/73/user.schae.15675836._000001.MiniNtuple.root'
p17
aS'root://fax.mwt2.org:1094//pnfs/uchicago.edu/atlaslocalgroupdisk/rucio/user/schae/0f/35/user.schae.15675836._000002.MiniNtuple.root'
p18
asS'user.schae.v14Loose.00302829.physics_Main.r9264_p3083_p3576_MiniNtuple.root'
p19
(lp20
S'/share/t3data2/schae/v14Loose/user.schae.v14Loose.00302829.physics_Main.r9264_p3083_p3576_MiniNtuple.root/user.schae.15633820._000001.MiniNtuple.root'
p21
aS'/share/t3data2/schae/v14Loose/user.schae.v14Loose.00302829.physics_Main.r9264_p3083_p3576_MiniNtuple.root/user.schae.15633820._000002.MiniNtuple.root'
p22
aS'/share/t3data2/schae/v14Loose/user.schae.v14Loose.00302829.physics_Main.r9264_p3083_p3576_MiniNtuple.root/user.schae.15633820._000003.MiniNtuple.root'
p23
asS'user.schae.v15Loose.364183.Sherpa_221_NNPDF30NNLO_Wenu_MAXHTPTV1000_E_CMS.e5340_s3126_r9364_p3575_MiniNtuple.root'
p24
(lp25
S'/share/t3data2/schae/v14Loose/user.schae.v15Loose.364183.Sherpa_221_NNPDF30NNLO_Wenu_MAXHTPTV1000_E_CMS.e5340_s3126_r9364_p3575_MiniNtuple.root/user.schae.15675988._000001.MiniNtuple.root'
p26
aS'/share/t3data2/schae/v14Loose/user.schae.v15Loose.364183.Sherpa_221_NNPDF30NNLO_Wenu_MAXHTPTV1000_E_CMS.e5340_s3126_r9364_p3575_MiniNtuple.root/user.schae.15675988._000002.MiniNtuple.root'
p27
aS'/share/t3data2/schae/v14Loose/user.schae.v15Loose.364183.Sherpa_221_NNPDF30NNLO_Wenu_MAXHTPTV1000_E_CMS.e5340_s3126_r9364_p3575_MiniNtuple.root/user.schae.15675988._000003.MiniNtuple.root'
p28
aS'/share/t3data2/schae/v14Loose/user.schae.v15Loose.364183.Sherpa_221_NNPDF30NNLO_Wenu_MAXHTPTV1000_E_CMS.e5340_s3126_r9364_p3575_MiniNtuple.root/user.schae.15675988._000004.MiniNtuple.root'
p29
asS'user.schae.v15Loose.364197.Sherpa_221_NNPDF30NNLO_Wtaunu_MAXHTPTV1000_E_CMS.e5340_s3126_r9364_p3575_MiniNtuple.root           '
p30
(lp31
S'root://fax.mwt2.org:1094//pnfs/uchicago.edu/atlaslocalgroupdisk/rucio/user/schae/6e/34/user.schae.15676183._000001.MiniNtuple.root'
p32
aS'root://fax.mwt2.org:1094//pnfs/uchicago.edu/atlaslocalgroupdisk/rucio/user/schae/26/3c/user.schae.15676183._000002.MiniNtuple.root'
p33
aS'root://fax.mwt2.org:1094//pnfs/uchicago.edu/atlaslocalgroupdisk/rucio/user/schae/e6/21/user.schae.15676183._000003.MiniNtuple.root'
p34
asS'user.schae.v15Loose.364103.Sherpa_221_NNPDF30NNLO_Zmumu_MAXHTPTV70_140_CVetoBVeto.e5271_s3126_r9364_p3575_MiniNtuple.root'
p35
(lp36
S'/share/t3data2/schae/v14Loose/user.schae.v15Loose.364103.Sherpa_221_NNPDF30NNLO_Zmumu_MAXHTPTV70_140_CVetoBVeto.e5271_s3126_r9364_p3575_MiniNtuple.root/user.schae.15676342._000001.MiniNtuple.root'
p37
aS'/share/t3data2/schae/v14Loose/user.schae.v15Loose.364103.Sherpa_221_NNPDF30NNLO_Zmumu_MAXHTPTV70_140_CVetoBVeto.e5271_s3126_r9364_p3575_MiniNtuple.root/user.schae.15676342._000002.MiniNtuple.root'
p38
asS'user.schae.v15Loose.364148.Sherpa_221_NNPDF30NNLO_Znunu_MAXHTPTV140_280_CVetoBVeto.e5308_s3126_r9364_p3575_MiniNtuple.root    '
p39
(lp40
S'root://fax.mwt2.org:1094//pnfs/uchicago.edu/atlaslocalgroupdisk/rucio/user/schae/81/5d/user.schae.15676614._000001.MiniNtuple.root'
p41
aS'root://fax.mwt2.org:1094//pnfs/uchicago.edu/atlaslocalgroupdisk/rucio/user/schae/62/14/user.schae.15676614._000002.MiniNtuple.root'
p42
aS'root://fax.mwt2.org:1094//pnfs/uchicago.edu/atlaslocalgroupdisk/rucio/user/schae/e0/9b/user.schae.15676614._000003.MiniNtuple.root'
p43
aS'root://fax.mwt2.org:1094//pnfs/uchicago.edu/atlaslocalgroupdisk/rucio/user/schae/86/18/user.schae.15676614._000004.MiniNtuple.root'
p44
asS'user.schae.v15Loose.364192.Sherpa_221_NNPDF30NNLO_Wtaunu_MAXHTPTV140_280_BFilter.e5340_s3126_r9364_p3575_MiniNtuple.root'
p45
(lp46
S'root://fax.mwt2.org:1094//pnfs/uchicago.edu/atlaslocalgroupdisk/rucio/user/schae/84/b1/user.schae.15676147._000001.MiniNtuple.root.2'
p47
aS'root://fax.mwt2.org:1094//pnfs/uchicago.edu/atlaslocalgroupdisk/rucio/user/schae/ca/d0/user.schae.15676147._000002.MiniNtuple.root'
p48
aS'root://fax.mwt2.org:1094//pnfs/uchicago.edu/atlaslocalgroupdisk/rucio/user/schae/53/38/user.schae.15676147._000005.MiniNtuple.root'
p49
aS'root://fax.mwt2.org:1094//pnfs/uchicago.edu/atlaslocalgroupdisk/rucio/user/schae/eb/fa/user.schae.15676147._000006.MiniNtuple.root'
p50
aS'root://fax.mwt2.org:1094//pnfs/uchicago.edu/atlaslocalgroupdisk/rucio/user/schae/1e/0d/user.schae.15676147._000007.MiniNtuple.root'
p51
aS'root://fax.mwt2.org:1094//pnfs/uchicago.edu/atlaslocalgroupdisk/rucio/user/schae/86/ae/user.schae.15676147._000008.MiniNtuple.root'
p52
aS'root://fax.mwt2.org:1094//pnfs/uchicago.edu/atlaslocalgroupdisk/rucio/user/schae/07/a0/user.schae.15676147._000009.MiniNtuple.root'
p53
aS'root://fax.mwt2.org:1094//pnfs/uchicago.edu/atlaslocalgroupdisk/rucio/user/schae/67/69/user.schae.15676147._000010.MiniNtuple.root'
p54
asS'user.schae.v15Loose.308284.PowhegPythia8EvtGen_NNLOPS_nnlo_30_ggH125_ZZ4nu_MET75.e6126_s3126_r9364_p3575_MiniNtuple.root      '
p55
(lp56
S'root://fax.mwt2.org:1094//pnfs/uchicago.edu/atlaslocalgroupdisk/rucio/user/schae/42/51/user.schae.15675775._000001.MiniNtuple.root'
p57
asS'user.schae.v15Loose.364101.Sherpa_221_NNPDF30NNLO_Zmumu_MAXHTPTV0_70_CFilterBVeto.e5271_s3126_r9364_p3575_MiniNtuple.root     '
p58
(lp59
S'root://fax.mwt2.org:1094//pnfs/uchicago.edu/atlaslocalgroupdisk/rucio/user/schae/5e/36/user.schae.15676324._000001.MiniNtuple.root'
p60
aS'root://fax.mwt2.org:1094//pnfs/uchicago.edu/atlaslocalgroupdisk/rucio/user/schae/25/62/user.schae.15676324._000002.MiniNtuple.root'
p61
asS'user.schae.v15Loose.364126.Sherpa_221_NNPDF30NNLO_Zee_MAXHTPTV500_1000.e5299_s3126_r9364_p3575_MiniNtuple.root                '
p62
(lp63
S'root://fax.mwt2.org:1094//pnfs/uchicago.edu/atlaslocalgroupdisk/rucio/user/schae/9f/d9/user.schae.15676300._000001.MiniNtuple.root'
p64
aS'root://fax.mwt2.org:1094//pnfs/uchicago.edu/atlaslocalgroupdisk/rucio/user/schae/f3/ed/user.schae.15676300._000002.MiniNtuple.root'
p65
aS'root://fax.mwt2.org:1094//pnfs/uchicago.edu/atlaslocalgroupdisk/rucio/user/schae/26/60/user.schae.15676300._000003.MiniNtuple.root'
p66
asS'user.schae.v15Loose.364147.Sherpa_221_NNPDF30NNLO_Znunu_MAXHTPTV70_140_BFilter.e5308_s3126_r9364_p3575_MiniNtuple.root        '
p67
(lp68
S'root://fax.mwt2.org:1094//pnfs/uchicago.edu/atlaslocalgroupdisk/rucio/user/schae/17/b7/user.schae.15676601._000001.MiniNtuple.root'
p69
aS'root://fax.mwt2.org:1094//pnfs/uchicago.edu/atlaslocalgroupdisk/rucio/user/schae/4e/72/user.schae.15676601._000002.MiniNtuple.root'
p70
asS'user.schae.v15Loose.364182.Sherpa_221_NNPDF30NNLO_Wenu_MAXHTPTV500_1000.e5340_s3126_r9364_p3575_MiniNtuple.root               '
p71
(lp72
S'root://fax.mwt2.org:1094//pnfs/uchicago.edu/atlaslocalgroupdisk/rucio/user/schae/99/23/user.schae.15675982._000001.MiniNtuple.root'
p73
aS'root://fax.mwt2.org:1094//pnfs/uchicago.edu/atlaslocalgroupdisk/rucio/user/schae/6c/9b/user.schae.15675982._000002.MiniNtuple.root'
p74
aS'root://fax.mwt2.org:1094//pnfs/uchicago.edu/atlaslocalgroupdisk/rucio/user/schae/8d/6c/user.schae.15675982._000003.MiniNtuple.root'
p75
aS'root://fax.mwt2.org:1094//pnfs/uchicago.edu/atlaslocalgroupdisk/rucio/user/schae/74/53/user.schae.15675982._000005.MiniNtuple.root'
p76
asS'user.schae.v15Loose.410470.PhPy8EG_A14_ttbar_hdamp258p75_nonallhad.e6337_s3126_r9364_p3575_MiniNtuple.root                    '
p77
(lp78
S'root://fax.mwt2.org:1094//pnfs/uchicago.edu/atlaslocalgroupdisk/rucio/user/schae/e1/15/user.schae.15676722._000001.MiniNtuple.root'
p79
aS'root://fax.mwt2.org:1094//pnfs/uchicago.edu/atlaslocalgroupdisk/rucio/user/schae/df/73/user.schae.15676722._000002.MiniNtuple.root'
p80
aS'root://fax.mwt2.org:1094//pnfs/uchicago.edu/atlaslocalgroupdisk/rucio/user/schae/a7/df/user.schae.15676722._000003.MiniNtuple.root'
p81
aS'root://fax.mwt2.org:1094//pnfs/uchicago.edu/atlaslocalgroupdisk/rucio/user/schae/af/ed/user.schae.15676722._000004.MiniNtuple.root'
p82
aS'root://fax.mwt2.org:1094//pnfs/uchicago.edu/atlaslocalgroupdisk/rucio/user/schae/fa/f4/user.schae.15676722._000005.MiniNtuple.root'
p83
asS'user.schae.v15Loose.364128.Sherpa_221_NNPDF30NNLO_Ztautau_MAXHTPTV0_70_CVetoBVeto.e5307_s3126_r9364_p3575_MiniNtuple.root     '
p84
(lp85
S'root://fax.mwt2.org:1094//pnfs/uchicago.edu/atlaslocalgroupdisk/rucio/user/schae/27/1f/user.schae.15676453._000001.MiniNtuple.root'
p86
aS'root://fax.mwt2.org:1094//pnfs/uchicago.edu/atlaslocalgroupdisk/rucio/user/schae/23/86/user.schae.15676453._000002.MiniNtuple.root'
p87
asS'user.schae.v15Loose.364151.Sherpa_221_NNPDF30NNLO_Znunu_MAXHTPTV280_500_CVetoBVeto.e5308_s3126_r9364_p3575_MiniNtuple.root    '
p88
(lp89
S'root://fax.mwt2.org:1094//pnfs/uchicago.edu/atlaslocalgroupdisk/rucio/user/schae/3a/cb/user.schae.15676666._000001.MiniNtuple.root'
p90
aS'root://fax.mwt2.org:1094//pnfs/uchicago.edu/atlaslocalgroupdisk/rucio/user/schae/78/b0/user.schae.15676666._000002.MiniNtuple.root'
p91
aS'root://fax.mwt2.org:1094//pnfs/uchicago.edu/atlaslocalgroupdisk/rucio/user/schae/f8/6e/user.schae.15676666._000003.MiniNtuple.root'
p92
asS'user.schae.v15Loose.364103.Sherpa_221_NNPDF30NNLO_Zmumu_MAXHTPTV70_140_CVetoBVeto.e5271_s3126_r9364_p3575_MiniNtuple.root     '
p93
(lp94
S'root://fax.mwt2.org:1094//pnfs/uchicago.edu/atlaslocalgroupdisk/rucio/user/schae/8f/5a/user.schae.15676342._000002.MiniNtuple.root'
p95
asS'user.schae.v15Loose.364164.Sherpa_221_NNPDF30NNLO_Wmunu_MAXHTPTV140_280_BFilter.e5340_s3126_r9364_p3575_MiniNtuple.root       '
p96
(lp97
S'root://fax.mwt2.org:1094//pnfs/uchicago.edu/atlaslocalgroupdisk/rucio/user/schae/ac/83/user.schae.15676055._000001.MiniNtuple.root'
p98
aS'root://fax.mwt2.org:1094//pnfs/uchicago.edu/atlaslocalgroupdisk/rucio/user/schae/fd/69/user.schae.15676055._000004.MiniNtuple.root'
p99
aS'root://fax.mwt2.org:1094//pnfs/uchicago.edu/atlaslocalgroupdisk/rucio/user/schae/1b/f1/user.schae.15676055._000008.MiniNtuple.root'
p100
aS'root://fax.mwt2.org:1094//pnfs/uchicago.edu/atlaslocalgroupdisk/rucio/user/schae/ce/5f/user.schae.15676055._000009.MiniNtuple.root'
p101
aS'root://fax.mwt2.org:1094//pnfs/uchicago.edu/atlaslocalgroupdisk/rucio/user/schae/90/42/user.schae.15676055._000011.MiniNtuple.root'
p102
aS'root://fax.mwt2.org:1094//pnfs/uchicago.edu/atlaslocalgroupdisk/rucio/user/schae/7b/53/user.schae.15676055._000012.MiniNtuple.root'
p103
aS'root://fax.mwt2.org:1094//pnfs/uchicago.edu/atlaslocalgroupdisk/rucio/user/schae/af/fe/user.schae.15676055._000013.MiniNtuple.root'
p104
aS'root://fax.mwt2.org:1094//pnfs/uchicago.edu/atlaslocalgroupdisk/rucio/user/schae/2d/6e/user.schae.15676055._000014.MiniNtuple.root'
p105
aS'root://fax.mwt2.org:1094//pnfs/uchicago.edu/atlaslocalgroupdisk/rucio/user/schae/6e/a9/user.schae.15676055._000015.MiniNtuple.root'
p106
asS'user.schae.v15Loose.364183.Sherpa_221_NNPDF30NNLO_Wenu_MAXHTPTV1000_E_CMS.e5340_s3126_r9364_p3575_MiniNtuple.root             '
p107
(lp108
S'root://fax.mwt2.org:1094//pnfs/uchicago.edu/atlaslocalgroupdisk/rucio/user/schae/06/cf/user.schae.15675988._000001.MiniNtuple.root'
p109
aS'root://fax.mwt2.org:1094//pnfs/uchicago.edu/atlaslocalgroupdisk/rucio/user/schae/ea/84/user.schae.15675988._000002.MiniNtuple.root'
p110
aS'root://fax.mwt2.org:1094//pnfs/uchicago.edu/atlaslocalgroupdisk/rucio/user/schae/73/1b/user.schae.15675988._000003.MiniNtuple.root'
p111
aS'root://fax.mwt2.org:1094//pnfs/uchicago.edu/atlaslocalgroupdisk/rucio/user/schae/29/be/user.schae.15675988._000004.MiniNtuple.root'
p112
asS'user.schae.v15Loose.364163.Sherpa_221_NNPDF30NNLO_Wmunu_MAXHTPTV140_280_CFilterBVeto.e5340_s3126_r9364_p3575_MiniNtuple.root  '
p113
(lp114
S'root://fax.mwt2.org:1094//pnfs/uchicago.edu/atlaslocalgroupdisk/rucio/user/schae/21/e5/user.schae.15676048._000001.MiniNtuple.root'
p115
aS'root://fax.mwt2.org:1094//pnfs/uchicago.edu/atlaslocalgroupdisk/rucio/user/schae/7d/53/user.schae.15676048._000002.MiniNtuple.root'
p116
aS'root://fax.mwt2.org:1094//pnfs/uchicago.edu/atlaslocalgroupdisk/rucio/user/schae/94/5f/user.schae.15676048._000003.MiniNtuple.root'
p117
asS'user.schae.v15Loose.364111.Sherpa_221_NNPDF30NNLO_Zmumu_MAXHTPTV280_500_BFilter.e5271_s3126_r9364_p3575_MiniNtuple.root       '
p118
(lp119
S'root://fax.mwt2.org:1094//pnfs/uchicago.edu/atlaslocalgroupdisk/rucio/user/schae/ec/f5/user.schae.15676420._000001.MiniNtuple.root'
p120
aS'root://fax.mwt2.org:1094//pnfs/uchicago.edu/atlaslocalgroupdisk/rucio/user/schae/3b/02/user.schae.15676420._000002.MiniNtuple.root'
p121
asS'user.schae.v15Loose.364194.Sherpa_221_NNPDF30NNLO_Wtaunu_MAXHTPTV280_500_CFilterBVeto.e5340_s3126_r9364_p3575_MiniNtuple.root '
p122
(lp123
S'root://fax.mwt2.org:1094//pnfs/uchicago.edu/atlaslocalgroupdisk/rucio/user/schae/8f/78/user.schae.15676164._000001.MiniNtuple.root'
p124
aS'root://fax.mwt2.org:1094//pnfs/uchicago.edu/atlaslocalgroupdisk/rucio/user/schae/47/b3/user.schae.15676164._000002.MiniNtuple.root'
p125
aS'root://fax.mwt2.org:1094//pnfs/uchicago.edu/atlaslocalgroupdisk/rucio/user/schae/dc/9c/user.schae.15676164._000003.MiniNtuple.root'
p126
asS'user.schae.v15Loose.364105.Sherpa_221_NNPDF30NNLO_Zmumu_MAXHTPTV70_140_BFilter.e5271_s3126_r9364_p3575_MiniNtuple.root        '
p127
(lp128
S'root://fax.mwt2.org:1094//pnfs/uchicago.edu/atlaslocalgroupdisk/rucio/user/schae/a0/97/user.schae.15676359._000001.MiniNtuple.root'
p129
aS'root://fax.mwt2.org:1094//pnfs/uchicago.edu/atlaslocalgroupdisk/rucio/user/schae/b1/3d/user.schae.15676359._000002.MiniNtuple.root'
p130
asS'user.schae.v15Loose.363151.MGPy8EG_N30NLO_Zee_Ht70_140_CFilterBVeto.e4866_s3126_r9364_p3575_MiniNtuple.root                   '
p131
(lp132
S'root://fax.mwt2.org:1094//pnfs/uchicago.edu/atlaslocalgroupdisk/rucio/user/schae/57/0f/user.schae.15686085._000001.MiniNtuple.root'
p133
asS'user.schae.v15Loose.363358.Sherpa_221_NNPDF30NNLO_WqqZll.e5525_s3126_r9364_p3575_MiniNtuple.root                              '
p134
(lp135
S'root://fax.mwt2.org:1094//pnfs/uchicago.edu/atlaslocalgroupdisk/rucio/user/schae/a7/85/user.schae.15675815._000001.MiniNtuple.root'
p136
aS'root://fax.mwt2.org:1094//pnfs/uchicago.edu/atlaslocalgroupdisk/rucio/user/schae/95/9b/user.schae.15675815._000002.MiniNtuple.root'
p137
asS'user.schae.v14Loose.00302380.physics_Main.r9264_p3083_p3576_MiniNtuple.root'
p138
(lp139
S'/share/t3data2/schae/v14Loose/user.schae.v14Loose.00302380.physics_Main.r9264_p3083_p3576_MiniNtuple.root/user.schae.15634372._000001.MiniNtuple.root'
p140
aS'/share/t3data2/schae/v14Loose/user.schae.v14Loose.00302380.physics_Main.r9264_p3083_p3576_MiniNtuple.root/user.schae.15634372._000002.MiniNtuple.root'
p141
asS'user.schae.v15Loose.363357.Sherpa_221_NNPDF30NNLO_WqqZvv.e5525_s3126_r9364_p3575_MiniNtuple.root                              '
p142
(lp143
S'root://fax.mwt2.org:1094//pnfs/uchicago.edu/atlaslocalgroupdisk/rucio/user/schae/72/83/user.schae.15675809._000001.MiniNtuple.root'
p144
aS'root://fax.mwt2.org:1094//pnfs/uchicago.edu/atlaslocalgroupdisk/rucio/user/schae/e1/26/user.schae.15675809._000002.MiniNtuple.root'
p145
asS'user.schae.v15Loose.410025.PowhegPythiaEvtGen_P2012_SingleTopSchan_noAllHad_top.e3998_s3126_r9364_p3575_MiniNtuple.root       '
p146
(lp147
S'root://fax.mwt2.org:1094//pnfs/uchicago.edu/atlaslocalgroupdisk/rucio/user/schae/43/0e/user.schae.15676758._000001.MiniNtuple.root'
p148
aS'root://fax.mwt2.org:1094//pnfs/uchicago.edu/atlaslocalgroupdisk/rucio/user/schae/8c/89/user.schae.15676758._000002.MiniNtuple.root'
p149
aS'root://fax.mwt2.org:1094//pnfs/uchicago.edu/atlaslocalgroupdisk/rucio/user/schae/dd/ab/user.schae.15676758._000003.MiniNtuple.root'
p150
asS'user.schae.v15Loose.364116.Sherpa_221_NNPDF30NNLO_Zee_MAXHTPTV0_70_BFilter.e5299_s3126_r9364_p3575_MiniNtuple.root            '
p151
(lp152
S'root://fax.mwt2.org:1094//pnfs/uchicago.edu/atlaslocalgroupdisk/rucio/user/schae/49/16/user.schae.15676207._000001.MiniNtuple.root'
p153
aS'root://fax.mwt2.org:1094//pnfs/uchicago.edu/atlaslocalgroupdisk/rucio/user/schae/aa/4a/user.schae.15676207._000002.MiniNtuple.root'
p154
asS'user.schae.v15Loose.363656.MGPy8EG_N30NLO_Wtaunu_Ht140_280_BFilter.e4944_s3126_r9364_p3575_MiniNtuple.root                    '
p155
(lp156
S'root://fax.mwt2.org:1094//pnfs/uchicago.edu/atlaslocalgroupdisk/rucio/user/schae/aa/c9/user.schae.15686077._000001.MiniNtuple.root'
p157
aS'root://fax.mwt2.org:1094//pnfs/uchicago.edu/atlaslocalgroupdisk/rucio/user/schae/d8/2c/user.schae.15686077._000002.MiniNtuple.root'
p158
asS'user.schae.v15Loose.364171.Sherpa_221_NNPDF30NNLO_Wenu_MAXHTPTV0_70_CFilterBVeto.e5340_s3126_r9364_p3575_MiniNtuple.root      '
p159
(lp160
S'root://fax.mwt2.org:1094//pnfs/uchicago.edu/atlaslocalgroupdisk/rucio/user/schae/85/47/user.schae.15675898._000001.MiniNtuple.root'
p161
aS'root://fax.mwt2.org:1094//pnfs/uchicago.edu/atlaslocalgroupdisk/rucio/user/schae/6a/ce/user.schae.15675898._000002.MiniNtuple.root'
p162
asS'user.schae.v15Loose.364154.Sherpa_221_NNPDF30NNLO_Znunu_MAXHTPTV500_1000.e5308_s3126_r9364_p3575_MiniNtuple.root              '
p163
(lp164
S'root://fax.mwt2.org:1094//pnfs/uchicago.edu/atlaslocalgroupdisk/rucio/user/schae/05/e1/user.schae.15676707._000001.MiniNtuple.root'
p165
aS'root://fax.mwt2.org:1094//pnfs/uchicago.edu/atlaslocalgroupdisk/rucio/user/schae/25/96/user.schae.15676707._000002.MiniNtuple.root'
p166
aS'root://fax.mwt2.org:1094//pnfs/uchicago.edu/atlaslocalgroupdisk/rucio/user/schae/d2/97/user.schae.15676707._000003.MiniNtuple.root'
p167
asS'user.schae.v15Loose.364149.Sherpa_221_NNPDF30NNLO_Znunu_MAXHTPTV140_280_CFilterBVeto.e5308_s3126_r9364_p3575_MiniNtuple.root  '
p168
(lp169
S'root://fax.mwt2.org:1094//pnfs/uchicago.edu/atlaslocalgroupdisk/rucio/user/schae/45/a6/user.schae.15676633._000001.MiniNtuple.root'
p170
aS'root://fax.mwt2.org:1094//pnfs/uchicago.edu/atlaslocalgroupdisk/rucio/user/schae/e0/ea/user.schae.15676633._000002.MiniNtuple.root'
p171
aS'root://fax.mwt2.org:1094//pnfs/uchicago.edu/atlaslocalgroupdisk/rucio/user/schae/9c/9d/user.schae.15676633._000003.MiniNtuple.root'
p172
aS'root://fax.mwt2.org:1094//pnfs/uchicago.edu/atlaslocalgroupdisk/rucio/user/schae/3d/53/user.schae.15676633._000004.MiniNtuple.root'
p173
aS'root://fax.mwt2.org:1094//pnfs/uchicago.edu/atlaslocalgroupdisk/rucio/user/schae/26/61/user.schae.15676633._000005.MiniNtuple.root'
p174
asS'user.schae.v15Loose.364196.Sherpa_221_NNPDF30NNLO_Wtaunu_MAXHTPTV500_1000.e5340_s3126_r9364_p3575_MiniNtuple.root             '
p175
(lp176
S'root://fax.mwt2.org:1094//pnfs/uchicago.edu/atlaslocalgroupdisk/rucio/user/schae/28/99/user.schae.15676178._000001.MiniNtuple.root'
p177
aS'root://fax.mwt2.org:1094//pnfs/uchicago.edu/atlaslocalgroupdisk/rucio/user/schae/f5/08/user.schae.15676178._000002.MiniNtuple.root'
p178
aS'root://fax.mwt2.org:1094//pnfs/uchicago.edu/atlaslocalgroupdisk/rucio/user/schae/6a/0b/user.schae.15676178._000003.MiniNtuple.root'
p179
aS'root://fax.mwt2.org:1094//pnfs/uchicago.edu/atlaslocalgroupdisk/rucio/user/schae/b2/03/user.schae.15676178._000004.MiniNtuple.root'
p180
asS'user.schae.v15Loose.364107.Sherpa_221_NNPDF30NNLO_Zmumu_MAXHTPTV140_280_CFilterBVeto.e5271_s3126_r9364_p3575_MiniNtuple.root  '
p181
(lp182
S'root://fax.mwt2.org:1094//pnfs/uchicago.edu/atlaslocalgroupdisk/rucio/user/schae/70/c8/user.schae.15676383._000001.MiniNtuple.root'
p183
aS'root://fax.mwt2.org:1094//pnfs/uchicago.edu/atlaslocalgroupdisk/rucio/user/schae/27/61/user.schae.15676383._000002.MiniNtuple.root'
p184
asS'user.schae.v15Loose.364152.Sherpa_221_NNPDF30NNLO_Znunu_MAXHTPTV280_500_CFilterBVeto.e5308_s3126_r9364_p3575_MiniNtuple.root  '
p185
(lp186
S'root://fax.mwt2.org:1094//pnfs/uchicago.edu/atlaslocalgroupdisk/rucio/user/schae/9b/08/user.schae.15676677._000001.MiniNtuple.root'
p187
aS'root://fax.mwt2.org:1094//pnfs/uchicago.edu/atlaslocalgroupdisk/rucio/user/schae/2f/32/user.schae.15676677._000002.MiniNtuple.root'
p188
asS'user.schae.v14Loose.00276176.physics_Main.r9412_p3083_p3576_MiniNtuple.root'
p189
(lp190
S'/share/t3data2/schae/v14Loose/user.schae.v14Loose.00276176.physics_Main.r9412_p3083_p3576_MiniNtuple.root/user.schae.15632445._000001.MiniNtuple.root'
p191
asS'user.schae.v15Loose.364102.Sherpa_221_NNPDF30NNLO_Zmumu_MAXHTPTV0_70_BFilter.e5271_s3126_r9364_p3575_MiniNtuple.root          '
p192
(lp193
S'root://fax.mwt2.org:1094//pnfs/uchicago.edu/atlaslocalgroupdisk/rucio/user/schae/8f/49/user.schae.15676332._000001.MiniNtuple.root'
p194
aS'root://fax.mwt2.org:1094//pnfs/uchicago.edu/atlaslocalgroupdisk/rucio/user/schae/cf/cd/user.schae.15676332._000002.MiniNtuple.root'
p195
asS'user.schae.v15Loose.364109.Sherpa_221_NNPDF30NNLO_Zmumu_MAXHTPTV280_500_CVetoBVeto.e5271_s3126_r9364_p3575_MiniNtuple.root'
p196
(lp197
S'/share/t3data2/schae/v14Loose/user.schae.v15Loose.364109.Sherpa_221_NNPDF30NNLO_Zmumu_MAXHTPTV280_500_CVetoBVeto.e5271_s3126_r9364_p3575_MiniNtuple.root/user.schae.15676402._000001.MiniNtuple.root'
p198
aS'/share/t3data2/schae/v14Loose/user.schae.v15Loose.364109.Sherpa_221_NNPDF30NNLO_Zmumu_MAXHTPTV280_500_CVetoBVeto.e5271_s3126_r9364_p3575_MiniNtuple.root/user.schae.15676402._000002.MiniNtuple.root'
p199
asS'user.schae.v15Loose.364109.Sherpa_221_NNPDF30NNLO_Zmumu_MAXHTPTV280_500_CVetoBVeto.e5271_s3126_r9364_p3575_MiniNtuple.root    '
p200
(lp201
S'root://fax.mwt2.org:1094//pnfs/uchicago.edu/atlaslocalgroupdisk/rucio/user/schae/bd/74/user.schae.15676402._000002.MiniNtuple.root'
p202
asS'user.schae.v15Loose.364153.Sherpa_221_NNPDF30NNLO_Znunu_MAXHTPTV280_500_BFilter.e5308_s3126_r9364_p3575_MiniNtuple.root       '
p203
(lp204
S'root://fax.mwt2.org:1094//pnfs/uchicago.edu/atlaslocalgroupdisk/rucio/user/schae/70/4c/user.schae.15676695._000001.MiniNtuple.root'
p205
aS'root://fax.mwt2.org:1094//pnfs/uchicago.edu/atlaslocalgroupdisk/rucio/user/schae/4e/d4/user.schae.15676695._000002.MiniNtuple.root'
p206
aS'root://fax.mwt2.org:1094//pnfs/uchicago.edu/atlaslocalgroupdisk/rucio/user/schae/96/c0/user.schae.15676695._000003.MiniNtuple.root'
p207
aS'root://fax.mwt2.org:1094//pnfs/uchicago.edu/atlaslocalgroupdisk/rucio/user/schae/8d/2a/user.schae.15676695._000004.MiniNtuple.root'
p208
asS'user.schae.v15Loose.364121.Sherpa_221_NNPDF30NNLO_Zee_MAXHTPTV140_280_CFilterBVeto.e5299_s3126_r9364_p3575_MiniNtuple.root    '
p209
(lp210
S'root://fax.mwt2.org:1094//pnfs/uchicago.edu/atlaslocalgroupdisk/rucio/user/schae/63/2b/user.schae.15676252._000001.MiniNtuple.root'
p211
aS'root://fax.mwt2.org:1094//pnfs/uchicago.edu/atlaslocalgroupdisk/rucio/user/schae/4a/4f/user.schae.15676252._000002.MiniNtuple.root'
p212
aS'root://fax.mwt2.org:1094//pnfs/uchicago.edu/atlaslocalgroupdisk/rucio/user/schae/e2/57/user.schae.15676252._000003.MiniNtuple.root'
p213
asS'user.schae.v15Loose.364110.Sherpa_221_NNPDF30NNLO_Zmumu_MAXHTPTV280_500_CFilterBVeto.e5271_s3126_r9364_p3575_MiniNtuple.root  '
p214
(lp215
S'root://fax.mwt2.org:1094//pnfs/uchicago.edu/atlaslocalgroupdisk/rucio/user/schae/99/bf/user.schae.15676410._000001.MiniNtuple.root'
p216
aS'root://fax.mwt2.org:1094//pnfs/uchicago.edu/atlaslocalgroupdisk/rucio/user/schae/d8/a8/user.schae.15676410._000002.MiniNtuple.root'
p217
asS'user.schae.v15Loose.364195.Sherpa_221_NNPDF30NNLO_Wtaunu_MAXHTPTV280_500_BFilter.e5340_s3126_r9364_p3575_MiniNtuple.root'
p218
(lp219
S'/share/t3data2/schae/v14Loose/user.schae.v15Loose.364195.Sherpa_221_NNPDF30NNLO_Wtaunu_MAXHTPTV280_500_BFilter.e5340_s3126_r9364_p3575_MiniNtuple.root/user.schae.15676171._000001.MiniNtuple.root'
p220
aS'/share/t3data2/schae/v14Loose/user.schae.v15Loose.364195.Sherpa_221_NNPDF30NNLO_Wtaunu_MAXHTPTV280_500_BFilter.e5340_s3126_r9364_p3575_MiniNtuple.root/user.schae.15676171._000002.MiniNtuple.root'
p221
aS'/share/t3data2/schae/v14Loose/user.schae.v15Loose.364195.Sherpa_221_NNPDF30NNLO_Wtaunu_MAXHTPTV280_500_BFilter.e5340_s3126_r9364_p3575_MiniNtuple.root/user.schae.15676171._000003.MiniNtuple.root'
p222
asS'user.schae.v15Loose.364167.Sherpa_221_NNPDF30NNLO_Wmunu_MAXHTPTV280_500_BFilter.e5340_s3126_r9364_p3575_MiniNtuple.root       '
p223
(lp224
S'root://fax.mwt2.org:1094//pnfs/uchicago.edu/atlaslocalgroupdisk/rucio/user/schae/40/fc/user.schae.15676073._000001.MiniNtuple.root'
p225
aS'root://fax.mwt2.org:1094//pnfs/uchicago.edu/atlaslocalgroupdisk/rucio/user/schae/7c/05/user.schae.15676073._000002.MiniNtuple.root'
p226
asS'user.schae.v15Loose.364137.Sherpa_221_NNPDF30NNLO_Ztautau_MAXHTPTV280_500_CVetoBVeto.e5307_s3126_r9364_p3575_MiniNtuple.root  '
p227
(lp228
S'root://fax.mwt2.org:1094//pnfs/uchicago.edu/atlaslocalgroupdisk/rucio/user/schae/65/0f/user.schae.15676528._000001.MiniNtuple.root'
p229
aS'root://fax.mwt2.org:1094//pnfs/uchicago.edu/atlaslocalgroupdisk/rucio/user/schae/0f/34/user.schae.15676528._000002.MiniNtuple.root'
p230
asS'user.schae.v15Loose.363360.Sherpa_221_NNPDF30NNLO_WplvWmqq.e5983_s3126_r9364_p3575_MiniNtuple.root                            '
p231
(lp232
S'root://fax.mwt2.org:1094//pnfs/uchicago.edu/atlaslocalgroupdisk/rucio/user/schae/c2/7c/user.schae.15675828._000001.MiniNtuple.root'
p233
aS'root://fax.mwt2.org:1094//pnfs/uchicago.edu/atlaslocalgroupdisk/rucio/user/schae/ee/73/user.schae.15675828._000002.MiniNtuple.root'
p234
aS'root://fax.mwt2.org:1094//pnfs/uchicago.edu/atlaslocalgroupdisk/rucio/user/schae/4f/9e/user.schae.15675828._000003.MiniNtuple.root'
p235
asS'user.schae.v15Loose.364138.Sherpa_221_NNPDF30NNLO_Ztautau_MAXHTPTV280_500_CFilterBVeto.e5313_s3126_r9364_p3575_MiniNtuple.root'
p236
(lp237
S'/share/t3data2/schae/v14Loose/user.schae.v15Loose.364138.Sherpa_221_NNPDF30NNLO_Ztautau_MAXHTPTV280_500_CFilterBVeto.e5313_s3126_r9364_p3575_MiniNtuple.root/user.schae.15676533._000001.MiniNtuple.root'
p238
aS'/share/t3data2/schae/v14Loose/user.schae.v15Loose.364138.Sherpa_221_NNPDF30NNLO_Ztautau_MAXHTPTV280_500_CFilterBVeto.e5313_s3126_r9364_p3575_MiniNtuple.root/user.schae.15676533._000002.MiniNtuple.root'
p239
asS'user.schae.v15Loose.364142.Sherpa_221_NNPDF30NNLO_Znunu_MAXHTPTV0_70_CVetoBVeto.e5308_s3126_r9364_p3575_MiniNtuple.root       '
p240
(lp241
S'root://fax.mwt2.org:1094//pnfs/uchicago.edu/atlaslocalgroupdisk/rucio/user/schae/ff/fb/user.schae.15676564._000001.MiniNtuple.root'
p242
asS'user.schae.v15Loose.308094.Sherpa_221_NNPDF30NNLO_Ztautau2jets_Min_N_TChannel.e5767_s3126_r9364_p3575_MiniNtuple.root         '
p243
(lp244
S'root://fax.mwt2.org:1094//pnfs/uchicago.edu/atlaslocalgroupdisk/rucio/user/schae/c3/f3/user.schae.15675856._000001.MiniNtuple.root'
p245
asS'user.schae.v15Loose.364161.Sherpa_221_NNPDF30NNLO_Wmunu_MAXHTPTV70_140_BFilter.e5340_s3126_r9364_p3575_MiniNtuple.root        '
p246
(lp247
S'root://fax.mwt2.org:1094//pnfs/uchicago.edu/atlaslocalgroupdisk/rucio/user/schae/2a/a5/user.schae.15676034._000001.MiniNtuple.root'
p248
aS'root://fax.mwt2.org:1094//pnfs/uchicago.edu/atlaslocalgroupdisk/rucio/user/schae/c2/54/user.schae.15676034._000002.MiniNtuple.root'
p249
aS'root://fax.mwt2.org:1094//pnfs/uchicago.edu/atlaslocalgroupdisk/rucio/user/schae/90/2f/user.schae.15676034._000003.MiniNtuple.root'
p250
aS'root://fax.mwt2.org:1094//pnfs/uchicago.edu/atlaslocalgroupdisk/rucio/user/schae/cc/ef/user.schae.15676034._000004.MiniNtuple.root'
p251
asS'user.schae.v15Loose.308092.Sherpa_221_NNPDF30NNLO_Zee2jets_Min_N_TChannel.e5767_s3126_r9364_p3575_MiniNtuple.root             '
p252
(lp253
S'root://fax.mwt2.org:1094//pnfs/uchicago.edu/atlaslocalgroupdisk/rucio/user/schae/02/75/user.schae.15675842._000001.MiniNtuple.root'
p254
asS'user.schae.v15Loose.364124.Sherpa_221_NNPDF30NNLO_Zee_MAXHTPTV280_500_CFilterBVeto.e5299_s3126_r9364_p3575_MiniNtuple.root    '
p255
(lp256
S'root://fax.mwt2.org:1094//pnfs/uchicago.edu/atlaslocalgroupdisk/rucio/user/schae/f3/41/user.schae.15676282._000001.MiniNtuple.root'
p257
aS'root://fax.mwt2.org:1094//pnfs/uchicago.edu/atlaslocalgroupdisk/rucio/user/schae/68/a6/user.schae.15676282._000002.MiniNtuple.root'
p258
asS'user.schae.v15Loose.364117.Sherpa_221_NNPDF30NNLO_Zee_MAXHTPTV70_140_CVetoBVeto.e5299_s3126_r9364_p3575_MiniNtuple.root       '
p259
(lp260
S'root://fax.mwt2.org:1094//pnfs/uchicago.edu/atlaslocalgroupdisk/rucio/user/schae/6f/cb/user.schae.15676218._000001.MiniNtuple.root'
p261
aS'root://fax.mwt2.org:1094//pnfs/uchicago.edu/atlaslocalgroupdisk/rucio/user/schae/4a/a8/user.schae.15676218._000002.MiniNtuple.root'
p262
aS'root://fax.mwt2.org:1094//pnfs/uchicago.edu/atlaslocalgroupdisk/rucio/user/schae/e0/53/user.schae.15676218._000003.MiniNtuple.root'
p263
aS'root://fax.mwt2.org:1094//pnfs/uchicago.edu/atlaslocalgroupdisk/rucio/user/schae/20/bd/user.schae.15676218._000004.MiniNtuple.root'
p264
asS'user.schae.v15Loose.410014.PowhegPythiaEvtGen_P2012_Wt_inclusive_antitop.e3753_s3126_r9364_p3575_MiniNtuple.root              '
p265
(lp266
S'root://fax.mwt2.org:1094//pnfs/uchicago.edu/atlaslocalgroupdisk/rucio/user/schae/a1/cc/user.schae.15676751._000001.MiniNtuple.root'
p267
aS'root://fax.mwt2.org:1094//pnfs/uchicago.edu/atlaslocalgroupdisk/rucio/user/schae/94/80/user.schae.15676751._000002.MiniNtuple.root'
p268
aS'root://fax.mwt2.org:1094//pnfs/uchicago.edu/atlaslocalgroupdisk/rucio/user/schae/d3/0b/user.schae.15676751._000003.MiniNtuple.root'
p269
asS'user.schae.v15Loose.364136.Sherpa_221_NNPDF30NNLO_Ztautau_MAXHTPTV140_280_BFilter.e5307_s3126_r9364_p3575_MiniNtuple.root     '
p270
(lp271
S'root://fax.mwt2.org:1094//pnfs/uchicago.edu/atlaslocalgroupdisk/rucio/user/schae/4e/67/user.schae.15676518._000001.MiniNtuple.root'
p272
aS'root://fax.mwt2.org:1094//pnfs/uchicago.edu/atlaslocalgroupdisk/rucio/user/schae/a4/0f/user.schae.15676518._000002.MiniNtuple.root'
p273
aS'root://fax.mwt2.org:1094//pnfs/uchicago.edu/atlaslocalgroupdisk/rucio/user/schae/aa/0f/user.schae.15676518._000003.MiniNtuple.root'
p274
aS'root://fax.mwt2.org:1094//pnfs/uchicago.edu/atlaslocalgroupdisk/rucio/user/schae/d5/55/user.schae.15676518._000004.MiniNtuple.root'
p275
aS'root://fax.mwt2.org:1094//pnfs/uchicago.edu/atlaslocalgroupdisk/rucio/user/schae/4e/59/user.schae.15676518._000005.MiniNtuple.root'
p276
asS'user.schae.v15Loose.364144.Sherpa_221_NNPDF30NNLO_Znunu_MAXHTPTV0_70_BFilter.e5308_s3126_r9364_p3575_MiniNtuple.root          '
p277
(lp278
S'root://fax.mwt2.org:1094//pnfs/uchicago.edu/atlaslocalgroupdisk/rucio/user/schae/63/2c/user.schae.15676579._000001.MiniNtuple.root'
p279
asS'user.schae.v15Loose.364123.Sherpa_221_NNPDF30NNLO_Zee_MAXHTPTV280_500_CVetoBVeto.e5299_s3126_r9364_p3575_MiniNtuple.root      '
p280
(lp281
S'root://fax.mwt2.org:1094//pnfs/uchicago.edu/atlaslocalgroupdisk/rucio/user/schae/9d/c6/user.schae.15676270._000001.MiniNtuple.root'
p282
aS'root://fax.mwt2.org:1094//pnfs/uchicago.edu/atlaslocalgroupdisk/rucio/user/schae/a1/7e/user.schae.15676270._000002.MiniNtuple.root'
p283
asS'user.schae.v15Loose.364177.Sherpa_221_NNPDF30NNLO_Wenu_MAXHTPTV140_280_CFilterBVeto.e5340_s3126_r9364_p3575_MiniNtuple.root   '
p284
(lp285
S'root://fax.mwt2.org:1094//pnfs/uchicago.edu/atlaslocalgroupdisk/rucio/user/schae/be/78/user.schae.15675941._000001.MiniNtuple.root'
p286
aS'root://fax.mwt2.org:1094//pnfs/uchicago.edu/atlaslocalgroupdisk/rucio/user/schae/b9/84/user.schae.15675941._000002.MiniNtuple.root'
p287
aS'root://fax.mwt2.org:1094//pnfs/uchicago.edu/atlaslocalgroupdisk/rucio/user/schae/d8/28/user.schae.15675941._000003.MiniNtuple.root'
p288
asS'user.schae.v15Loose.364150.Sherpa_221_NNPDF30NNLO_Znunu_MAXHTPTV140_280_BFilter.e5308_s3126_r9364_p3575_MiniNtuple.root       '
p289
(lp290
S'root://fax.mwt2.org:1094//pnfs/uchicago.edu/atlaslocalgroupdisk/rucio/user/schae/68/79/user.schae.15676651._000001.MiniNtuple.root'
p291
aS'root://fax.mwt2.org:1094//pnfs/uchicago.edu/atlaslocalgroupdisk/rucio/user/schae/d9/09/user.schae.15676651._000002.MiniNtuple.root'
p292
aS'root://fax.mwt2.org:1094//pnfs/uchicago.edu/atlaslocalgroupdisk/rucio/user/schae/68/f1/user.schae.15676651._000003.MiniNtuple.root'
p293
aS'root://fax.mwt2.org:1094//pnfs/uchicago.edu/atlaslocalgroupdisk/rucio/user/schae/5f/24/user.schae.15676651._000004.MiniNtuple.root'
p294
aS'root://fax.mwt2.org:1094//pnfs/uchicago.edu/atlaslocalgroupdisk/rucio/user/schae/4d/22/user.schae.15676651._000005.MiniNtuple.root'
p295
asS'user.schae.v15Loose.364100.Sherpa_221_NNPDF30NNLO_Zmumu_MAXHTPTV0_70_CVetoBVeto.e5271_s3126_r9364_p3575_MiniNtuple.root       '
p296
(lp297
S'root://fax.mwt2.org:1094//pnfs/uchicago.edu/atlaslocalgroupdisk/rucio/user/schae/83/70/user.schae.15676316._000001.MiniNtuple.root'
p298
asS'user.schae.v15Loose.364108.Sherpa_221_NNPDF30NNLO_Zmumu_MAXHTPTV140_280_BFilter.e5271_s3126_r9364_p3575_MiniNtuple.root       '
p299
(lp300
S'root://fax.mwt2.org:1094//pnfs/uchicago.edu/atlaslocalgroupdisk/rucio/user/schae/ae/99/user.schae.15676395._000001.MiniNtuple.root'
p301
aS'root://fax.mwt2.org:1094//pnfs/uchicago.edu/atlaslocalgroupdisk/rucio/user/schae/8b/41/user.schae.15676395._000002.MiniNtuple.root'
p302
aS'root://fax.mwt2.org:1094//pnfs/uchicago.edu/atlaslocalgroupdisk/rucio/user/schae/2d/10/user.schae.15676395._000003.MiniNtuple.root'
p303
asS'user.schae.v15Loose.364141.Sherpa_221_NNPDF30NNLO_Ztautau_MAXHTPTV1000_E_CMS.e5307_s3126_r9364_p3575_MiniNtuple.root          '
p304
(lp305
S'root://fax.mwt2.org:1094//pnfs/uchicago.edu/atlaslocalgroupdisk/rucio/user/schae/f0/74/user.schae.15676556._000001.MiniNtuple.root'
p306
aS'root://fax.mwt2.org:1094//pnfs/uchicago.edu/atlaslocalgroupdisk/rucio/user/schae/88/6f/user.schae.15676556._000002.MiniNtuple.root'
p307
asS'user.schae.v15Loose.364168.Sherpa_221_NNPDF30NNLO_Wmunu_MAXHTPTV500_1000.e5340_s3126_r9364_p3575_MiniNtuple.root              '
p308
(lp309
S'root://fax.mwt2.org:1094//pnfs/uchicago.edu/atlaslocalgroupdisk/rucio/user/schae/26/b4/user.schae.15676078._000001.MiniNtuple.root'
p310
aS'root://fax.mwt2.org:1094//pnfs/uchicago.edu/atlaslocalgroupdisk/rucio/user/schae/5d/29/user.schae.15676078._000002.MiniNtuple.root'
p311
aS'root://fax.mwt2.org:1094//pnfs/uchicago.edu/atlaslocalgroupdisk/rucio/user/schae/bc/2a/user.schae.15676078._000003.MiniNtuple.root'
p312
aS'root://fax.mwt2.org:1094//pnfs/uchicago.edu/atlaslocalgroupdisk/rucio/user/schae/db/40/user.schae.15676078._000004.MiniNtuple.root'
p313
asS'user.schae.v15Loose.364195.Sherpa_221_NNPDF30NNLO_Wtaunu_MAXHTPTV280_500_BFilter.e5340_s3126_r9364_p3575_MiniNtuple.root      '
p314
(lp315
S'root://fax.mwt2.org:1094//pnfs/uchicago.edu/atlaslocalgroupdisk/rucio/user/schae/27/5c/user.schae.15676171._000002.MiniNtuple.root'
p316
aS'root://fax.mwt2.org:1094//pnfs/uchicago.edu/atlaslocalgroupdisk/rucio/user/schae/53/3b/user.schae.15676171._000003.MiniNtuple.root'
p317
asS'user.schae.v15Loose.364134.Sherpa_221_NNPDF30NNLO_Ztautau_MAXHTPTV140_280_CVetoBVeto.e5307_s3126_r9364_p3575_MiniNtuple.root  '
p318
(lp319
S'root://fax.mwt2.org:1094//pnfs/uchicago.edu/atlaslocalgroupdisk/rucio/user/schae/1c/06/user.schae.15676504._000001.MiniNtuple.root'
p320
aS'root://fax.mwt2.org:1094//pnfs/uchicago.edu/atlaslocalgroupdisk/rucio/user/schae/2b/50/user.schae.15676504._000002.MiniNtuple.root'
p321
aS'root://fax.mwt2.org:1094//pnfs/uchicago.edu/atlaslocalgroupdisk/rucio/user/schae/d4/2d/user.schae.15676504._000003.MiniNtuple.root'
p322
asS'user.schae.v15Loose.363652.MGPy8EG_N30NLO_Wtaunu_Ht70_140_CFilterBVeto.e4944_e5984_s3126_r9364_r9315_p3575_MiniNtuple.root    '
p323
(lp324
S'root://fax.mwt2.org:1094//pnfs/uchicago.edu/atlaslocalgroupdisk/rucio/user/schae/ec/25/user.schae.15686186._000001.MiniNtuple.root'
p325
aS'root://fax.mwt2.org:1094//pnfs/uchicago.edu/atlaslocalgroupdisk/rucio/user/schae/f8/6a/user.schae.15686186._000002.MiniNtuple.root'
p326
asS'user.schae.v15Loose.364114.Sherpa_221_NNPDF30NNLO_Zee_MAXHTPTV0_70_CVetoBVeto.e5299_s3126_r9364_p3575_MiniNtuple.root'
p327
(lp328
S'/share/t3data2/schae/v14Loose/user.schae.v15Loose.364114.Sherpa_221_NNPDF30NNLO_Zee_MAXHTPTV0_70_CVetoBVeto.e5299_s3126_r9364_p3575_MiniNtuple.root/user.schae.15676190._000001.MiniNtuple.root'
p329
aS'/share/t3data2/schae/v14Loose/user.schae.v15Loose.364114.Sherpa_221_NNPDF30NNLO_Zee_MAXHTPTV0_70_CVetoBVeto.e5299_s3126_r9364_p3575_MiniNtuple.root/user.schae.15676190._000002.MiniNtuple.root'
p330
asS'user.schae.v15Loose.364174.Sherpa_221_NNPDF30NNLO_Wenu_MAXHTPTV70_140_CFilterBVeto.e5340_s3126_r9364_p3575_MiniNtuple.root    '
p331
(lp332
S'root://fax.mwt2.org:1094//pnfs/uchicago.edu/atlaslocalgroupdisk/rucio/user/schae/6e/38/user.schae.15675918._000001.MiniNtuple.root'
p333
aS'root://fax.mwt2.org:1094//pnfs/uchicago.edu/atlaslocalgroupdisk/rucio/user/schae/02/e7/user.schae.15675918._000002.MiniNtuple.root'
p334
asS'user.schae.v15Loose.364184.Sherpa_221_NNPDF30NNLO_Wtaunu_MAXHTPTV0_70_CVetoBVeto.e5340_s3126_r9364_p3575_MiniNtuple.root      '
p335
(lp336
S'root://fax.mwt2.org:1094//pnfs/uchicago.edu/atlaslocalgroupdisk/rucio/user/schae/d3/2e/user.schae.15676104._000001.MiniNtuple.root'
p337
aS'root://fax.mwt2.org:1094//pnfs/uchicago.edu/atlaslocalgroupdisk/rucio/user/schae/fd/dd/user.schae.15676104._000002.MiniNtuple.root'
p338
asS'user.schae.v15Loose.364115.Sherpa_221_NNPDF30NNLO_Zee_MAXHTPTV0_70_CFilterBVeto.e5299_s3126_r9364_p3575_MiniNtuple.root       '
p339
(lp340
S'root://fax.mwt2.org:1094//pnfs/uchicago.edu/atlaslocalgroupdisk/rucio/user/schae/52/ab/user.schae.15676196._000001.MiniNtuple.root'
p341
aS'root://fax.mwt2.org:1094//pnfs/uchicago.edu/atlaslocalgroupdisk/rucio/user/schae/3a/ac/user.schae.15676196._000002.MiniNtuple.root'
p342
asS'user.schae.v15Loose.364189.Sherpa_221_NNPDF30NNLO_Wtaunu_MAXHTPTV70_140_BFilter.e5340_s3126_r9364_p3575_MiniNtuple.root       '
p343
(lp344
S'root://fax.mwt2.org:1094//pnfs/uchicago.edu/atlaslocalgroupdisk/rucio/user/schae/6f/24/user.schae.15676132._000001.MiniNtuple.root'
p345
aS'root://fax.mwt2.org:1094//pnfs/uchicago.edu/atlaslocalgroupdisk/rucio/user/schae/07/8f/user.schae.15676132._000002.MiniNtuple.root'
p346
asS'user.schae.v15Loose.364122.Sherpa_221_NNPDF30NNLO_Zee_MAXHTPTV140_280_BFilter.e5299_s3126_r9364_p3575_MiniNtuple.root         '
p347
(lp348
S'root://fax.mwt2.org:1094//pnfs/uchicago.edu/atlaslocalgroupdisk/rucio/user/schae/58/12/user.schae.15676260._000001.MiniNtuple.root'
p349
aS'root://fax.mwt2.org:1094//pnfs/uchicago.edu/atlaslocalgroupdisk/rucio/user/schae/c5/4c/user.schae.15676260._000002.MiniNtuple.root'
p350
aS'root://fax.mwt2.org:1094//pnfs/uchicago.edu/atlaslocalgroupdisk/rucio/user/schae/a9/76/user.schae.15676260._000003.MiniNtuple.root'
p351
aS'root://fax.mwt2.org:1094//pnfs/uchicago.edu/atlaslocalgroupdisk/rucio/user/schae/10/a9/user.schae.15676260._000004.MiniNtuple.root'
p352
asS'user.schae.v15Loose.364143.Sherpa_221_NNPDF30NNLO_Znunu_MAXHTPTV0_70_CFilterBVeto.e5308_s3126_r9364_p3575_MiniNtuple.root     '
p353
(lp354
S'root://fax.mwt2.org:1094//pnfs/uchicago.edu/atlaslocalgroupdisk/rucio/user/schae/22/d6/user.schae.15676571._000001.MiniNtuple.root'
p355
asS'user.schae.v15Loose.364135.Sherpa_221_NNPDF30NNLO_Ztautau_MAXHTPTV140_280_CFilterBVeto.e5307_s3126_r9364_p3575_MiniNtuple.root'
p356
(lp357
S'root://fax.mwt2.org:1094//pnfs/uchicago.edu/atlaslocalgroupdisk/rucio/user/schae/1a/d1/user.schae.15676511._000001.MiniNtuple.root'
p358
aS'root://fax.mwt2.org:1094//pnfs/uchicago.edu/atlaslocalgroupdisk/rucio/user/schae/26/31/user.schae.15676511._000002.MiniNtuple.root'
p359
asS'user.schae.v15Loose.364113.Sherpa_221_NNPDF30NNLO_Zmumu_MAXHTPTV1000_E_CMS.e5271_s3126_r9364_p3575_MiniNtuple.root            '
p360
(lp361
S'root://fax.mwt2.org:1094//pnfs/uchicago.edu/atlaslocalgroupdisk/rucio/user/schae/10/ff/user.schae.15676436._000001.MiniNtuple.root'
p362
aS'root://fax.mwt2.org:1094//pnfs/uchicago.edu/atlaslocalgroupdisk/rucio/user/schae/e4/60/user.schae.15676436._000002.MiniNtuple.root'
p363
asS'user.schae.v15Loose.363630.MGPy8EG_N30NLO_Wmunu_Ht140_280_CVetoBVeto.e4944_s3126_r9364_p3575_MiniNtuple.root                  '
p364
(lp365
S'root://fax.mwt2.org:1094//pnfs/uchicago.edu/atlaslocalgroupdisk/rucio/user/schae/34/1f/user.schae.15686082._000001.MiniNtuple.root'
p366
aS'root://fax.mwt2.org:1094//pnfs/uchicago.edu/atlaslocalgroupdisk/rucio/user/schae/f7/24/user.schae.15686082._000002.MiniNtuple.root'
p367
aS'root://fax.mwt2.org:1094//pnfs/uchicago.edu/atlaslocalgroupdisk/rucio/user/schae/9a/08/user.schae.15686082._000003.MiniNtuple.root'
p368
asS'user.schae.v15Loose.363355.Sherpa_221_NNPDF30NNLO_ZqqZvv.e5525_s3126_r9364_p3575_MiniNtuple.root                              '
p369
(lp370
S'root://fax.mwt2.org:1094//pnfs/uchicago.edu/atlaslocalgroupdisk/rucio/user/schae/24/4d/user.schae.15675796._000001.MiniNtuple.root'
p371
aS'root://fax.mwt2.org:1094//pnfs/uchicago.edu/atlaslocalgroupdisk/rucio/user/schae/88/f1/user.schae.15675796._000002.MiniNtuple.root'
p372
asS'user.schae.v15Loose.308072.PowhegPythia8EvtGen_CT10_AZNLO_ZH125J_MINLO_jj_ZZinv.e5831_s3126_r9364_p3575_MiniNtuple.root       '
p373
(lp374
S'root://fax.mwt2.org:1094//pnfs/uchicago.edu/atlaslocalgroupdisk/rucio/user/schae/54/58/user.schae.15675789._000001.MiniNtuple.root'
p375
asS'user.schae.v15Loose.364190.Sherpa_221_NNPDF30NNLO_Wtaunu_MAXHTPTV140_280_CVetoBVeto.e5340_s3126_r9364_p3575_MiniNtuple.root   '
p376
(lp377
S'root://fax.mwt2.org:1094//pnfs/uchicago.edu/atlaslocalgroupdisk/rucio/user/schae/8f/96/user.schae.15676135._000001.MiniNtuple.root'
p378
aS'root://fax.mwt2.org:1094//pnfs/uchicago.edu/atlaslocalgroupdisk/rucio/user/schae/30/bb/user.schae.15676135._000002.MiniNtuple.root'
p379
aS'root://fax.mwt2.org:1094//pnfs/uchicago.edu/atlaslocalgroupdisk/rucio/user/schae/c7/c9/user.schae.15676135._000003.MiniNtuple.root'
p380
asS'user.schae.v15Loose.364145.Sherpa_221_NNPDF30NNLO_Znunu_MAXHTPTV70_140_CVetoBVeto.e5308_s3126_r9364_p3575_MiniNtuple.root     '
p381
(lp382
S'root://fax.mwt2.org:1094//pnfs/uchicago.edu/atlaslocalgroupdisk/rucio/user/schae/e9/4a/user.schae.15676587._000001.MiniNtuple.root'
p383
aS'root://fax.mwt2.org:1094//pnfs/uchicago.edu/atlaslocalgroupdisk/rucio/user/schae/2d/18/user.schae.15676587._000002.MiniNtuple.root'
p384
asS'user.schae.v15Loose.364188.Sherpa_221_NNPDF30NNLO_Wtaunu_MAXHTPTV70_140_CFilterBVeto.e5340_s3126_r9364_p3575_MiniNtuple.root  '
p385
(lp386
S'root://fax.mwt2.org:1094//pnfs/uchicago.edu/atlaslocalgroupdisk/rucio/user/schae/2c/c5/user.schae.15676126._000001.MiniNtuple.root'
p387
aS'root://fax.mwt2.org:1094//pnfs/uchicago.edu/atlaslocalgroupdisk/rucio/user/schae/54/82/user.schae.15676126._000002.MiniNtuple.root'
p388
asS'user.schae.v15Loose.364120.Sherpa_221_NNPDF30NNLO_Zee_MAXHTPTV140_280_CVetoBVeto.e5299_s3126_r9364_p3575_MiniNtuple.root'
p389
(lp390
S'/share/t3data2/schae/v14Loose/user.schae.v15Loose.364120.Sherpa_221_NNPDF30NNLO_Zee_MAXHTPTV140_280_CVetoBVeto.e5299_s3126_r9364_p3575_MiniNtuple.root/user.schae.15676243._000001.MiniNtuple.root'
p391
aS'/share/t3data2/schae/v14Loose/user.schae.v15Loose.364120.Sherpa_221_NNPDF30NNLO_Zee_MAXHTPTV140_280_CVetoBVeto.e5299_s3126_r9364_p3575_MiniNtuple.root/user.schae.15676243._000002.MiniNtuple.root'
p392
aS'/share/t3data2/schae/v14Loose/user.schae.v15Loose.364120.Sherpa_221_NNPDF30NNLO_Zee_MAXHTPTV140_280_CVetoBVeto.e5299_s3126_r9364_p3575_MiniNtuple.root/user.schae.15676243._000003.MiniNtuple.root'
p393
aS'/share/t3data2/schae/v14Loose/user.schae.v15Loose.364120.Sherpa_221_NNPDF30NNLO_Zee_MAXHTPTV140_280_CVetoBVeto.e5299_s3126_r9364_p3575_MiniNtuple.root/user.schae.15676243._000004.MiniNtuple.root'
p394
asS'user.schae.v15Loose.364170.Sherpa_221_NNPDF30NNLO_Wenu_MAXHTPTV0_70_CVetoBVeto.e5340_s3126_r9364_p3575_MiniNtuple.root        '
p395
(lp396
S'root://fax.mwt2.org:1094//pnfs/uchicago.edu/atlaslocalgroupdisk/rucio/user/schae/b1/5e/user.schae.15675894._000001.MiniNtuple.root'
p397
aS'root://fax.mwt2.org:1094//pnfs/uchicago.edu/atlaslocalgroupdisk/rucio/user/schae/56/04/user.schae.15675894._000002.MiniNtuple.root'
p398
asS'user.schae.v15Loose.364185.Sherpa_221_NNPDF30NNLO_Wtaunu_MAXHTPTV0_70_CFilterBVeto.e5340_s3126_r9364_p3575_MiniNtuple.root    '
p399
(lp400
S'root://fax.mwt2.org:1094//pnfs/uchicago.edu/atlaslocalgroupdisk/rucio/user/schae/49/20/user.schae.15676108._000001.MiniNtuple.root'
p401
aS'root://fax.mwt2.org:1094//pnfs/uchicago.edu/atlaslocalgroupdisk/rucio/user/schae/d6/14/user.schae.15676108._000002.MiniNtuple.root'
p402
asS'user.schae.v15Loose.364112.Sherpa_221_NNPDF30NNLO_Zmumu_MAXHTPTV500_1000.e5271_s3126_r9364_p3575_MiniNtuple.root              '
p403
(lp404
S'root://fax.mwt2.org:1094//pnfs/uchicago.edu/atlaslocalgroupdisk/rucio/user/schae/38/4e/user.schae.15676428._000001.MiniNtuple.root'
p405
aS'root://fax.mwt2.org:1094//pnfs/uchicago.edu/atlaslocalgroupdisk/rucio/user/schae/87/d7/user.schae.15676428._000002.MiniNtuple.root'
p406
aS'root://fax.mwt2.org:1094//pnfs/uchicago.edu/atlaslocalgroupdisk/rucio/user/schae/bf/e3/user.schae.15676428._000003.MiniNtuple.root'
p407
asS'user.schae.v15Loose.364180.Sherpa_221_NNPDF30NNLO_Wenu_MAXHTPTV280_500_CFilterBVeto.e5340_s3126_r9364_p3575_MiniNtuple.root   '
p408
(lp409
S'root://fax.mwt2.org:1094//pnfs/uchicago.edu/atlaslocalgroupdisk/rucio/user/schae/c6/2a/user.schae.15675965._000001.MiniNtuple.root'
p410
aS'root://fax.mwt2.org:1094//pnfs/uchicago.edu/atlaslocalgroupdisk/rucio/user/schae/30/39/user.schae.15675965._000002.MiniNtuple.root'
p411
aS'root://fax.mwt2.org:1094//pnfs/uchicago.edu/atlaslocalgroupdisk/rucio/user/schae/62/46/user.schae.15675965._000003.MiniNtuple.root'
p412
asS'user.schae.v15Loose.364191.Sherpa_221_NNPDF30NNLO_Wtaunu_MAXHTPTV140_280_CFilterBVeto.e5340_s3126_r9364_p3575_MiniNtuple.root '
p413
(lp414
S'root://fax.mwt2.org:1094//pnfs/uchicago.edu/atlaslocalgroupdisk/rucio/user/schae/3b/c8/user.schae.15676142._000001.MiniNtuple.root'
p415
aS'root://fax.mwt2.org:1094//pnfs/uchicago.edu/atlaslocalgroupdisk/rucio/user/schae/c1/b1/user.schae.15676142._000002.MiniNtuple.root'
p416
aS'root://fax.mwt2.org:1094//pnfs/uchicago.edu/atlaslocalgroupdisk/rucio/user/schae/7b/a5/user.schae.15676142._000003.MiniNtuple.root'
p417
asS'user.schae.v15Loose.364181.Sherpa_221_NNPDF30NNLO_Wenu_MAXHTPTV280_500_BFilter.e5340_s3126_r9364_p3575_MiniNtuple.root        '
p418
(lp419
S'root://fax.mwt2.org:1094//pnfs/uchicago.edu/atlaslocalgroupdisk/rucio/user/schae/0f/3a/user.schae.15675972._000001.MiniNtuple.root'
p420
aS'root://fax.mwt2.org:1094//pnfs/uchicago.edu/atlaslocalgroupdisk/rucio/user/schae/db/ae/user.schae.15675972._000002.MiniNtuple.root'
p421
aS'root://fax.mwt2.org:1094//pnfs/uchicago.edu/atlaslocalgroupdisk/rucio/user/schae/d1/9e/user.schae.15675972._000003.MiniNtuple.root'
p422
asS'user.schae.v14Loose.00280423.physics_Main.r9264_p3083_p3576_MiniNtuple.root'
p423
(lp424
S'/share/t3data2/schae/v14Loose/user.schae.v14Loose.00280423.physics_Main.r9264_p3083_p3576_MiniNtuple.root/user.schae.15632384._000001.MiniNtuple.root'
p425
aS'/share/t3data2/schae/v14Loose/user.schae.v14Loose.00280423.physics_Main.r9264_p3083_p3576_MiniNtuple.root/user.schae.15632384._000002.MiniNtuple.root'
p426
asS'user.schae.v15Loose.364119.Sherpa_221_NNPDF30NNLO_Zee_MAXHTPTV70_140_BFilter.e5299_s3126_r9364_p3575_MiniNtuple.root          '
p427
(lp428
S'root://fax.mwt2.org:1094//pnfs/uchicago.edu/atlaslocalgroupdisk/rucio/user/schae/a2/20/user.schae.15676233._000001.MiniNtuple.root'
p429
aS'root://fax.mwt2.org:1094//pnfs/uchicago.edu/atlaslocalgroupdisk/rucio/user/schae/5f/bf/user.schae.15676233._000002.MiniNtuple.root'
p430
aS'root://fax.mwt2.org:1094//pnfs/uchicago.edu/atlaslocalgroupdisk/rucio/user/schae/a8/08/user.schae.15676233._000003.MiniNtuple.root'
p431
asS'user.schae.v15Loose.364155.Sherpa_221_NNPDF30NNLO_Znunu_MAXHTPTV1000_E_CMS.e5308_s3126_r9364_p3575_MiniNtuple.root            '
p432
(lp433
S'root://fax.mwt2.org:1094//pnfs/uchicago.edu/atlaslocalgroupdisk/rucio/user/schae/1a/40/user.schae.15676713._000001.MiniNtuple.root'
p434
aS'root://fax.mwt2.org:1094//pnfs/uchicago.edu/atlaslocalgroupdisk/rucio/user/schae/bd/87/user.schae.15676713._000002.MiniNtuple.root'
p435
asS'user.schae.v15Loose.363359.Sherpa_221_NNPDF30NNLO_WpqqWmlv.e5583_s3126_r9364_p3575_MiniNtuple.root                            '
p436
(lp437
S'root://fax.mwt2.org:1094//pnfs/uchicago.edu/atlaslocalgroupdisk/rucio/user/schae/2c/48/user.schae.15675822._000001.MiniNtuple.root'
p438
aS'root://fax.mwt2.org:1094//pnfs/uchicago.edu/atlaslocalgroupdisk/rucio/user/schae/bd/f3/user.schae.15675822._000002.MiniNtuple.root'
p439
asS'user.schae.v15Loose.364177.Sherpa_221_NNPDF30NNLO_Wenu_MAXHTPTV140_280_CFilterBVeto.e5340_s3126_r9364_p3575_MiniNtuple.root'
p440
(lp441
S'/share/t3data2/schae/v14Loose/user.schae.v15Loose.364177.Sherpa_221_NNPDF30NNLO_Wenu_MAXHTPTV140_280_CFilterBVeto.e5340_s3126_r9364_p3575_MiniNtuple.root/user.schae.15675941._000001.MiniNtuple.root'
p442
aS'/share/t3data2/schae/v14Loose/user.schae.v15Loose.364177.Sherpa_221_NNPDF30NNLO_Wenu_MAXHTPTV140_280_CFilterBVeto.e5340_s3126_r9364_p3575_MiniNtuple.root/user.schae.15675941._000002.MiniNtuple.root'
p443
aS'/share/t3data2/schae/v14Loose/user.schae.v15Loose.364177.Sherpa_221_NNPDF30NNLO_Wenu_MAXHTPTV140_280_CFilterBVeto.e5340_s3126_r9364_p3575_MiniNtuple.root/user.schae.15675941._000003.MiniNtuple.root'
p444
asS'user.schae.v15Loose.308097.Sherpa_221_NNPDF30NNLO_Wmunu2jets_Min_N_TChannel.e5767_s3126_r9364_p3575_MiniNtuple.root           '
p445
(lp446
S'root://fax.mwt2.org:1094//pnfs/uchicago.edu/atlaslocalgroupdisk/rucio/user/schae/2c/16/user.schae.15675879._000001.MiniNtuple.root'
p447
asS'user.schae.v15Loose.308567.PowhegPy8EG_NNPDF30_AZNLOCTEQ6L1_VBFH125_ZZ4nu_125MET.e6126_s3126_r9364_p3575_MiniNtuple.root      '
p448
(lp449
S'root://fax.mwt2.org:1094//pnfs/uchicago.edu/atlaslocalgroupdisk/rucio/user/schae/59/f8/user.schae.15675770._000001.MiniNtuple.root'
p450
asS'user.schae.v15Loose.364157.Sherpa_221_NNPDF30NNLO_Wmunu_MAXHTPTV0_70_CFilterBVeto.e5340_s3126_r9364_p3575_MiniNtuple.root     '
p451
(lp452
S'root://fax.mwt2.org:1094//pnfs/uchicago.edu/atlaslocalgroupdisk/rucio/user/schae/32/d4/user.schae.15676002._000001.MiniNtuple.root'
p453
aS'root://fax.mwt2.org:1094//pnfs/uchicago.edu/atlaslocalgroupdisk/rucio/user/schae/f0/74/user.schae.15676002._000002.MiniNtuple.root'
p454
asS'user.schae.v15Loose.364106.Sherpa_221_NNPDF30NNLO_Zmumu_MAXHTPTV140_280_CVetoBVeto.e5271_s3126_r9364_p3575_MiniNtuple.root    '
p455
(lp456
S'root://fax.mwt2.org:1094//pnfs/uchicago.edu/atlaslocalgroupdisk/rucio/user/schae/08/06/user.schae.15676367._000001.MiniNtuple.root'
p457
aS'root://fax.mwt2.org:1094//pnfs/uchicago.edu/atlaslocalgroupdisk/rucio/user/schae/63/8e/user.schae.15676367._000002.MiniNtuple.root'
p458
aS'root://fax.mwt2.org:1094//pnfs/uchicago.edu/atlaslocalgroupdisk/rucio/user/schae/22/d3/user.schae.15676367._000003.MiniNtuple.root'
p459
asS'user.schae.v15Loose.364120.Sherpa_221_NNPDF30NNLO_Zee_MAXHTPTV140_280_CVetoBVeto.e5299_s3126_r9364_p3575_MiniNtuple.root      '
p460
(lp461
S'root://fax.mwt2.org:1094//pnfs/uchicago.edu/atlaslocalgroupdisk/rucio/user/schae/ce/ba/user.schae.15676243._000001.MiniNtuple.root'
p462
aS'root://fax.mwt2.org:1094//pnfs/uchicago.edu/atlaslocalgroupdisk/rucio/user/schae/cd/34/user.schae.15676243._000002.MiniNtuple.root'
p463
aS'root://fax.mwt2.org:1094//pnfs/uchicago.edu/atlaslocalgroupdisk/rucio/user/schae/b6/2a/user.schae.15676243._000003.MiniNtuple.root'
p464
asS'user.schae.v15Loose.364140.Sherpa_221_NNPDF30NNLO_Ztautau_MAXHTPTV500_1000.e5307_s3126_r9364_p3575_MiniNtuple.root            '
p465
(lp466
S'root://fax.mwt2.org:1094//pnfs/uchicago.edu/atlaslocalgroupdisk/rucio/user/schae/75/a5/user.schae.15676552._000001.MiniNtuple.root'
p467
aS'root://fax.mwt2.org:1094//pnfs/uchicago.edu/atlaslocalgroupdisk/rucio/user/schae/51/52/user.schae.15676552._000002.MiniNtuple.root'
p468
aS'root://fax.mwt2.org:1094//pnfs/uchicago.edu/atlaslocalgroupdisk/rucio/user/schae/56/7d/user.schae.15676552._000003.MiniNtuple.root'
p469
asS'user.schae.v15Loose.364130.Sherpa_221_NNPDF30NNLO_Ztautau_MAXHTPTV0_70_BFilter.e5307_s3126_r9364_p3575_MiniNtuple.root        '
p470
(lp471
S'root://fax.mwt2.org:1094//pnfs/uchicago.edu/atlaslocalgroupdisk/rucio/user/schae/65/a7/user.schae.15676473._000001.MiniNtuple.root'
p472
aS'root://fax.mwt2.org:1094//pnfs/uchicago.edu/atlaslocalgroupdisk/rucio/user/schae/9f/1d/user.schae.15676473._000002.MiniNtuple.root'
p473
aS'root://fax.mwt2.org:1094//pnfs/uchicago.edu/atlaslocalgroupdisk/rucio/user/schae/33/78/user.schae.15676473._000003.MiniNtuple.root'
p474
asS'user.schae.v15Loose.364159.Sherpa_221_NNPDF30NNLO_Wmunu_MAXHTPTV70_140_CVetoBVeto.e5340_s3126_r9364_p3575_MiniNtuple.root     '
p475
(lp476
S'root://fax.mwt2.org:1094//pnfs/uchicago.edu/atlaslocalgroupdisk/rucio/user/schae/d7/cc/user.schae.15676020._000001.MiniNtuple.root'
p477
aS'root://fax.mwt2.org:1094//pnfs/uchicago.edu/atlaslocalgroupdisk/rucio/user/schae/e8/75/user.schae.15676020._000002.MiniNtuple.root'
p478
asS'user.schae.v15Loose.364166.Sherpa_221_NNPDF30NNLO_Wmunu_MAXHTPTV280_500_CFilterBVeto.e5340_s3126_r9364_p3575_MiniNtuple.root  '
p479
(lp480
S'root://fax.mwt2.org:1094//pnfs/uchicago.edu/atlaslocalgroupdisk/rucio/user/schae/0d/e6/user.schae.15676069._000001.MiniNtuple.root'
p481
aS'root://fax.mwt2.org:1094//pnfs/uchicago.edu/atlaslocalgroupdisk/rucio/user/schae/f4/ef/user.schae.15676069._000002.MiniNtuple.root'
p482
asS'user.schae.v15Loose.364178.Sherpa_221_NNPDF30NNLO_Wenu_MAXHTPTV140_280_BFilter.e5340_s3126_r9364_p3575_MiniNtuple.root        '
p483
(lp484
S'root://fax.mwt2.org:1094//pnfs/uchicago.edu/atlaslocalgroupdisk/rucio/user/schae/17/a2/user.schae.15675949._000001.MiniNtuple.root'
p485
aS'root://fax.mwt2.org:1094//pnfs/uchicago.edu/atlaslocalgroupdisk/rucio/user/schae/b6/b2/user.schae.15675949._000002.MiniNtuple.root'
p486
aS'root://fax.mwt2.org:1094//pnfs/uchicago.edu/atlaslocalgroupdisk/rucio/user/schae/62/bd/user.schae.15675949._000003.MiniNtuple.root'
p487
aS'root://fax.mwt2.org:1094//pnfs/uchicago.edu/atlaslocalgroupdisk/rucio/user/schae/e0/90/user.schae.15675949._000004.MiniNtuple.root'
p488
aS'root://fax.mwt2.org:1094//pnfs/uchicago.edu/atlaslocalgroupdisk/rucio/user/schae/b2/6e/user.schae.15675949._000005.MiniNtuple.root'
p489
aS'root://fax.mwt2.org:1094//pnfs/uchicago.edu/atlaslocalgroupdisk/rucio/user/schae/8b/42/user.schae.15675949._000006.MiniNtuple.root'
p490
aS'root://fax.mwt2.org:1094//pnfs/uchicago.edu/atlaslocalgroupdisk/rucio/user/schae/8e/9d/user.schae.15675949._000007.MiniNtuple.root'
p491
aS'root://fax.mwt2.org:1094//pnfs/uchicago.edu/atlaslocalgroupdisk/rucio/user/schae/9c/da/user.schae.15675949._000008.MiniNtuple.root'
p492
asS'user.schae.v15Loose.410026.PowhegPythiaEvtGen_P2012_SingleTopSchan_noAllHad_antitop.e3998_s3126_r9364_p3575_MiniNtuple.root'
p493
(lp494
S'/share/t3data2/schae/v14Loose/user.schae.v15Loose.410026.PowhegPythiaEvtGen_P2012_SingleTopSchan_noAllHad_antitop.e3998_s3126_r9364_p3575_MiniNtuple.root/user.schae.15676767._000001.MiniNtuple.root'
p495
asS'user.schae.v15Loose.364129.Sherpa_221_NNPDF30NNLO_Ztautau_MAXHTPTV0_70_CFilterBVeto.e5307_s3126_r9364_p3575_MiniNtuple.root   '
p496
(lp497
S'root://fax.mwt2.org:1094//pnfs/uchicago.edu/atlaslocalgroupdisk/rucio/user/schae/05/b9/user.schae.15676466._000001.MiniNtuple.root'
p498
aS'root://fax.mwt2.org:1094//pnfs/uchicago.edu/atlaslocalgroupdisk/rucio/user/schae/c0/ac/user.schae.15676466._000002.MiniNtuple.root'
p499
asS'user.schae.v15Loose.364162.Sherpa_221_NNPDF30NNLO_Wmunu_MAXHTPTV140_280_CVetoBVeto.e5340_s3126_r9364_p3575_MiniNtuple.root    '
p500
(lp501
S'root://fax.mwt2.org:1094//pnfs/uchicago.edu/atlaslocalgroupdisk/rucio/user/schae/6d/08/user.schae.15676041._000001.MiniNtuple.root'
p502
aS'root://fax.mwt2.org:1094//pnfs/uchicago.edu/atlaslocalgroupdisk/rucio/user/schae/2b/26/user.schae.15676041._000002.MiniNtuple.root'
p503
aS'root://fax.mwt2.org:1094//pnfs/uchicago.edu/atlaslocalgroupdisk/rucio/user/schae/ac/af/user.schae.15676041._000003.MiniNtuple.root'
p504
asS'user.schae.v15Loose.410011.PowhegPythiaEvtGen_P2012_singletop_tchan_lept_top.e3824_s3126_r9364_p3575_MiniNtuple.root          '
p505
(lp506
S'root://fax.mwt2.org:1094//pnfs/uchicago.edu/atlaslocalgroupdisk/rucio/user/schae/ec/fb/user.schae.15676727._000001.MiniNtuple.root'
p507
aS'root://fax.mwt2.org:1094//pnfs/uchicago.edu/atlaslocalgroupdisk/rucio/user/schae/17/d6/user.schae.15676727._000002.MiniNtuple.root'
p508
aS'root://fax.mwt2.org:1094//pnfs/uchicago.edu/atlaslocalgroupdisk/rucio/user/schae/d3/09/user.schae.15676727._000003.MiniNtuple.root'
p509
asS'user.schae.v15Loose.364172.Sherpa_221_NNPDF30NNLO_Wenu_MAXHTPTV0_70_BFilter.e5340_s3126_r9364_p3575_MiniNtuple.root           '
p510
(lp511
S'root://fax.mwt2.org:1094//pnfs/uchicago.edu/atlaslocalgroupdisk/rucio/user/schae/24/a8/user.schae.15675907._000001.MiniNtuple.root'
p512
aS'root://fax.mwt2.org:1094//pnfs/uchicago.edu/atlaslocalgroupdisk/rucio/user/schae/ae/69/user.schae.15675907._000002.MiniNtuple.root'
p513
asS'user.schae.v15Loose.364175.Sherpa_221_NNPDF30NNLO_Wenu_MAXHTPTV70_140_BFilter.e5340_s3126_r9364_p3575_MiniNtuple.root         '
p514
(lp515
S'root://fax.mwt2.org:1094//pnfs/uchicago.edu/atlaslocalgroupdisk/rucio/user/schae/89/f6/user.schae.15675924._000001.MiniNtuple.root'
p516
aS'root://fax.mwt2.org:1094//pnfs/uchicago.edu/atlaslocalgroupdisk/rucio/user/schae/3f/bd/user.schae.15675924._000002.MiniNtuple.root'
p517
asS'user.schae.v15Loose.364139.Sherpa_221_NNPDF30NNLO_Ztautau_MAXHTPTV280_500_BFilter.e5313_s3126_r9364_p3575_MiniNtuple.root     '
p518
(lp519
S'root://fax.mwt2.org:1094//pnfs/uchicago.edu/atlaslocalgroupdisk/rucio/user/schae/b8/88/user.schae.15676541._000001.MiniNtuple.root'
p520
aS'root://fax.mwt2.org:1094//pnfs/uchicago.edu/atlaslocalgroupdisk/rucio/user/schae/67/e5/user.schae.15676541._000002.MiniNtuple.root'
p521
aS'root://fax.mwt2.org:1094//pnfs/uchicago.edu/atlaslocalgroupdisk/rucio/user/schae/47/80/user.schae.15676541._000003.MiniNtuple.root'
p522
aS'root://fax.mwt2.org:1094//pnfs/uchicago.edu/atlaslocalgroupdisk/rucio/user/schae/80/a0/user.schae.15676541._000004.MiniNtuple.root'
p523
asS'user.schae.v14Loose.364123.Sherpa_221_NNPDF30NNLO_Zee_MAXHTPTV280_500_CVetoBVeto.e5299_s3126_r9364_p3575_MiniNtuple.root'
p524
(lp525
S'/share/t3data2/schae/v14Loose/user.schae.v14Loose.364123.Sherpa_221_NNPDF30NNLO_Zee_MAXHTPTV280_500_CVetoBVeto.e5299_s3126_r9364_p3575_MiniNtuple.root/user.schae.15625159._000001.MiniNtuple.root'
p526
aS'/share/t3data2/schae/v14Loose/user.schae.v14Loose.364123.Sherpa_221_NNPDF30NNLO_Zee_MAXHTPTV280_500_CVetoBVeto.e5299_s3126_r9364_p3575_MiniNtuple.root/user.schae.15625159._000002.MiniNtuple.root'
p527
aS'/share/t3data2/schae/v14Loose/user.schae.v14Loose.364123.Sherpa_221_NNPDF30NNLO_Zee_MAXHTPTV280_500_CVetoBVeto.e5299_s3126_r9364_p3575_MiniNtuple.root/user.schae.15625159._000003.MiniNtuple.root'
p528
asS'user.schae.v14Loose.00306310.physics_Main.r9264_p3083_p3576_MiniNtuple.root'
p529
(lp530
S'/share/t3data2/schae/v14Loose/user.schae.v14Loose.00306310.physics_Main.r9264_p3083_p3576_MiniNtuple.root/user.schae.15633906._000001.MiniNtuple.root.2'
p531
aS'/share/t3data2/schae/v14Loose/user.schae.v14Loose.00306310.physics_Main.r9264_p3083_p3576_MiniNtuple.root/user.schae.15633906._000002.MiniNtuple.root'
p532
aS'/share/t3data2/schae/v14Loose/user.schae.v14Loose.00306310.physics_Main.r9264_p3083_p3576_MiniNtuple.root/user.schae.15633906._000003.MiniNtuple.root'
p533
aS'/share/t3data2/schae/v14Loose/user.schae.v14Loose.00306310.physics_Main.r9264_p3083_p3576_MiniNtuple.root/user.schae.15633906._000004.MiniNtuple.root'
p534
aS'/share/t3data2/schae/v14Loose/user.schae.v14Loose.00306310.physics_Main.r9264_p3083_p3576_MiniNtuple.root/user.schae.15633906._000005.MiniNtuple.root'
p535
asS'user.schae.v15Loose.364176.Sherpa_221_NNPDF30NNLO_Wenu_MAXHTPTV140_280_CVetoBVeto.e5340_s3126_r9364_p3575_MiniNtuple.root     '
p536
(lp537
S'root://fax.mwt2.org:1094//pnfs/uchicago.edu/atlaslocalgroupdisk/rucio/user/schae/a3/61/user.schae.15675936._000001.MiniNtuple.root'
p538
aS'root://fax.mwt2.org:1094//pnfs/uchicago.edu/atlaslocalgroupdisk/rucio/user/schae/13/84/user.schae.15675936._000002.MiniNtuple.root'
p539
aS'root://fax.mwt2.org:1094//pnfs/uchicago.edu/atlaslocalgroupdisk/rucio/user/schae/b8/74/user.schae.15675936._000003.MiniNtuple.root'
p540
asS'user.schae.v15Loose.364114.Sherpa_221_NNPDF30NNLO_Zee_MAXHTPTV0_70_CVetoBVeto.e5299_s3126_r9364_p3575_MiniNtuple.root         '
p541
(lp542
S'root://fax.mwt2.org:1094//pnfs/uchicago.edu/atlaslocalgroupdisk/rucio/user/schae/85/92/user.schae.15676190._000001.MiniNtuple.root'
p543
asS'user.schae.v15Loose.308276.PowhegPy8EG_NNPDF30_AZNLOCTEQ6L1_VBFH125_ZZ4nu_MET125.e6126_s3126_r9364_p3575_MiniNtuple.root      '
p544
(lp545
S'root://fax.mwt2.org:1094//pnfs/uchicago.edu/atlaslocalgroupdisk/rucio/user/schae/2a/fe/user.schae.15675763._000001.MiniNtuple.root'
p546
asS'user.schae.v15Loose.364104.Sherpa_221_NNPDF30NNLO_Zmumu_MAXHTPTV70_140_CFilterBVeto.e5271_s3126_r9364_p3575_MiniNtuple.root   '
p547
(lp548
S'root://fax.mwt2.org:1094//pnfs/uchicago.edu/atlaslocalgroupdisk/rucio/user/schae/7a/41/user.schae.15676348._000001.MiniNtuple.root'
p549
aS'root://fax.mwt2.org:1094//pnfs/uchicago.edu/atlaslocalgroupdisk/rucio/user/schae/0c/e8/user.schae.15676348._000002.MiniNtuple.root'
p550
asS'user.schae.v15Loose.364186.Sherpa_221_NNPDF30NNLO_Wtaunu_MAXHTPTV0_70_BFilter.e5340_s3126_r9364_p3575_MiniNtuple.root         '
p551
(lp552
S'root://fax.mwt2.org:1094//pnfs/uchicago.edu/atlaslocalgroupdisk/rucio/user/schae/37/6a/user.schae.15676115._000001.MiniNtuple.root'
p553
aS'root://fax.mwt2.org:1094//pnfs/uchicago.edu/atlaslocalgroupdisk/rucio/user/schae/ef/6d/user.schae.15676115._000002.MiniNtuple.root'
p554
asS'user.schae.v14Loose.00307454.physics_Main.r9264_p3083_p3576_MiniNtuple.root'
p555
(lp556
S'/share/t3data2/schae/v14Loose/user.schae.v14Loose.00307454.physics_Main.r9264_p3083_p3576_MiniNtuple.root/user.schae.15633948._000001.MiniNtuple.root'
p557
aS'/share/t3data2/schae/v14Loose/user.schae.v14Loose.00307454.physics_Main.r9264_p3083_p3576_MiniNtuple.root/user.schae.15633948._000002.MiniNtuple.root'
p558
aS'/share/t3data2/schae/v14Loose/user.schae.v14Loose.00307454.physics_Main.r9264_p3083_p3576_MiniNtuple.root/user.schae.15633948._000003.MiniNtuple.root'
p559
asS'user.schae.v15Loose.364158.Sherpa_221_NNPDF30NNLO_Wmunu_MAXHTPTV0_70_BFilter.e5340_s3126_r9364_p3575_MiniNtuple.root          '
p560
(lp561
S'root://fax.mwt2.org:1094//pnfs/uchicago.edu/atlaslocalgroupdisk/rucio/user/schae/b8/d8/user.schae.15676010._000001.MiniNtuple.root'
p562
aS'root://fax.mwt2.org:1094//pnfs/uchicago.edu/atlaslocalgroupdisk/rucio/user/schae/b3/38/user.schae.15676010._000002.MiniNtuple.root'
p563
asS'user.schae.v15Loose.364173.Sherpa_221_NNPDF30NNLO_Wenu_MAXHTPTV70_140_CVetoBVeto.e5340_s3126_r9364_p3575_MiniNtuple.root      '
p564
(lp565
S'root://fax.mwt2.org:1094//pnfs/uchicago.edu/atlaslocalgroupdisk/rucio/user/schae/82/d9/user.schae.15675913._000001.MiniNtuple.root'
p566
aS'root://fax.mwt2.org:1094//pnfs/uchicago.edu/atlaslocalgroupdisk/rucio/user/schae/0b/4e/user.schae.15675913._000002.MiniNtuple.root'
p567
aS'root://fax.mwt2.org:1094//pnfs/uchicago.edu/atlaslocalgroupdisk/rucio/user/schae/40/61/user.schae.15675913._000003.MiniNtuple.root'
p568
asS'user.schae.v15Loose.364125.Sherpa_221_NNPDF30NNLO_Zee_MAXHTPTV280_500_BFilter.e5299_s3126_r9364_p3575_MiniNtuple.root         '
p569
(lp570
S'root://fax.mwt2.org:1094//pnfs/uchicago.edu/atlaslocalgroupdisk/rucio/user/schae/0f/51/user.schae.15676290._000001.MiniNtuple.root'
p571
aS'root://fax.mwt2.org:1094//pnfs/uchicago.edu/atlaslocalgroupdisk/rucio/user/schae/81/28/user.schae.15676290._000002.MiniNtuple.root'
p572
asS'user.schae.v15Loose.364187.Sherpa_221_NNPDF30NNLO_Wtaunu_MAXHTPTV70_140_CVetoBVeto.e5340_s3126_r9364_p3575_MiniNtuple.root    '
p573
(lp574
S'root://fax.mwt2.org:1094//pnfs/uchicago.edu/atlaslocalgroupdisk/rucio/user/schae/bd/63/user.schae.15676122._000001.MiniNtuple.root'
p575
aS'root://fax.mwt2.org:1094//pnfs/uchicago.edu/atlaslocalgroupdisk/rucio/user/schae/50/28/user.schae.15676122._000002.MiniNtuple.root'
p576
aS'root://fax.mwt2.org:1094//pnfs/uchicago.edu/atlaslocalgroupdisk/rucio/user/schae/51/2b/user.schae.15676122._000003.MiniNtuple.root'
p577
asS'user.schae.v15Loose.308095.Sherpa_221_NNPDF30NNLO_Znunu2jets_Min_N_TChannel.e5767_s3126_r9364_p3575_MiniNtuple.root           '
p578
(lp579
S'root://fax.mwt2.org:1094//pnfs/uchicago.edu/atlaslocalgroupdisk/rucio/user/schae/57/0b/user.schae.15675864._000001.MiniNtuple.root'
p580
asS'user.schae.v15Loose.364118.Sherpa_221_NNPDF30NNLO_Zee_MAXHTPTV70_140_CFilterBVeto.e5299_s3126_r9364_p3575_MiniNtuple.root'
p581
(lp582
S'/share/t3data2/schae/v14Loose/user.schae.v15Loose.364118.Sherpa_221_NNPDF30NNLO_Zee_MAXHTPTV70_140_CFilterBVeto.e5299_s3126_r9364_p3575_MiniNtuple.root/user.schae.15676225._000001.MiniNtuple.root'
p583
aS'/share/t3data2/schae/v14Loose/user.schae.v15Loose.364118.Sherpa_221_NNPDF30NNLO_Zee_MAXHTPTV70_140_CFilterBVeto.e5299_s3126_r9364_p3575_MiniNtuple.root/user.schae.15676225._000002.MiniNtuple.root'
p584
asS'user.schae.v15Loose.364118.Sherpa_221_NNPDF30NNLO_Zee_MAXHTPTV70_140_CFilterBVeto.e5299_s3126_r9364_p3575_MiniNtuple.root     '
p585
(lp586
S'root://fax.mwt2.org:1094//pnfs/uchicago.edu/atlaslocalgroupdisk/rucio/user/schae/92/dc/user.schae.15676225._000002.MiniNtuple.root'
p587
asS'user.schae.v15Loose.410013.PowhegPythiaEvtGen_P2012_Wt_inclusive_top.e3753_s3126_r9364_p3575_MiniNtuple.root                  '
p588
(lp589
S'root://fax.mwt2.org:1094//pnfs/uchicago.edu/atlaslocalgroupdisk/rucio/user/schae/a2/39/user.schae.15676743._000001.MiniNtuple.root'
p590
aS'root://fax.mwt2.org:1094//pnfs/uchicago.edu/atlaslocalgroupdisk/rucio/user/schae/a5/78/user.schae.15676743._000002.MiniNtuple.root'
p591
aS'root://fax.mwt2.org:1094//pnfs/uchicago.edu/atlaslocalgroupdisk/rucio/user/schae/6f/c3/user.schae.15676743._000003.MiniNtuple.root'
p592
asS'user.schae.v15Loose.364193.Sherpa_221_NNPDF30NNLO_Wtaunu_MAXHTPTV280_500_CVetoBVeto.e5340_s3126_r9364_p3575_MiniNtuple.root   '
p593
(lp594
S'root://fax.mwt2.org:1094//pnfs/uchicago.edu/atlaslocalgroupdisk/rucio/user/schae/6a/34/user.schae.15676157._000001.MiniNtuple.root'
p595
aS'root://fax.mwt2.org:1094//pnfs/uchicago.edu/atlaslocalgroupdisk/rucio/user/schae/0a/6b/user.schae.15676157._000002.MiniNtuple.root'
p596
aS'root://fax.mwt2.org:1094//pnfs/uchicago.edu/atlaslocalgroupdisk/rucio/user/schae/d8/35/user.schae.15676157._000003.MiniNtuple.root'
p597
aS'root://fax.mwt2.org:1094//pnfs/uchicago.edu/atlaslocalgroupdisk/rucio/user/schae/67/5e/user.schae.15676157._000004.MiniNtuple.root'
p598
asS'user.schae.v15Loose.364132.Sherpa_221_NNPDF30NNLO_Ztautau_MAXHTPTV70_140_CFilterBVeto.e5307_s3126_r9364_p3575_MiniNtuple.root '
p599
(lp600
S'root://fax.mwt2.org:1094//pnfs/uchicago.edu/atlaslocalgroupdisk/rucio/user/schae/8e/a3/user.schae.15676488._000001.MiniNtuple.root'
p601
asS'user.schae.v15Loose.363656.MGPy8EG_N30NLO_Wtaunu_Ht140_280_BFilter.e4944_s3126_r9364_p3575_MiniNtuple.root'
p602
(lp603
S'/share/t3data2/schae/v14Loose/user.schae.v15Loose.363656.MGPy8EG_N30NLO_Wtaunu_Ht140_280_BFilter.e4944_s3126_r9364_p3575_MiniNtuple.root/user.schae.15686077._000001.MiniNtuple.root'
p604
aS'/share/t3data2/schae/v14Loose/user.schae.v15Loose.363656.MGPy8EG_N30NLO_Wtaunu_Ht140_280_BFilter.e4944_s3126_r9364_p3575_MiniNtuple.root/user.schae.15686077._000002.MiniNtuple.root'
p605
asS'user.schae.v15Loose.361511.MadGraphPythia8EvtGen_A14NNPDF23LO_Ztautau_Np1.e3898_s3126_r9364_p3575_MiniNtuple.root             '
p606
(lp607
S'root://fax.mwt2.org:1094//pnfs/uchicago.edu/atlaslocalgroupdisk/rucio/user/schae/09/6b/user.schae.15686088._000001.MiniNtuple.root'
p608
aS'root://fax.mwt2.org:1094//pnfs/uchicago.edu/atlaslocalgroupdisk/rucio/user/schae/33/b6/user.schae.15686088._000002.MiniNtuple.root'
p609
asS'user.schae.v15Loose.364133.Sherpa_221_NNPDF30NNLO_Ztautau_MAXHTPTV70_140_BFilter.e5307_s3126_r9364_p3575_MiniNtuple.root      '
p610
(lp611
S'root://fax.mwt2.org:1094//pnfs/uchicago.edu/atlaslocalgroupdisk/rucio/user/schae/06/8f/user.schae.15676495._000001.MiniNtuple.root'
p612
aS'root://fax.mwt2.org:1094//pnfs/uchicago.edu/atlaslocalgroupdisk/rucio/user/schae/a0/f4/user.schae.15676495._000002.MiniNtuple.root'
p613
asS'user.schae.v15Loose.308093.Sherpa_221_NNPDF30NNLO_Zmm2jets_Min_N_TChannel.e5767_s3126_r9364_p3575_MiniNtuple.root             '
p614
(lp615
S'root://fax.mwt2.org:1094//pnfs/uchicago.edu/atlaslocalgroupdisk/rucio/user/schae/97/43/user.schae.15675851._000001.MiniNtuple.root'
p616
asS'user.schae.v15Loose.364160.Sherpa_221_NNPDF30NNLO_Wmunu_MAXHTPTV70_140_CFilterBVeto.e5340_s3126_r9364_p3575_MiniNtuple.root   '
p617
(lp618
S'root://fax.mwt2.org:1094//pnfs/uchicago.edu/atlaslocalgroupdisk/rucio/user/schae/76/08/user.schae.15676028._000001.MiniNtuple.root'
p619
aS'root://fax.mwt2.org:1094//pnfs/uchicago.edu/atlaslocalgroupdisk/rucio/user/schae/ca/56/user.schae.15676028._000002.MiniNtuple.root'
p620
asS'user.schae.v14Loose.00284427.physics_Main.r9264_p3083_p3576_MiniNtuple.root'
p621
(lp622
S'/share/t3data2/schae/v14Loose/user.schae.v14Loose.00284427.physics_Main.r9264_p3083_p3576_MiniNtuple.root/user.schae.15632462._000001.MiniNtuple.root'
p623
asS'user.schae.v15Loose.364127.Sherpa_221_NNPDF30NNLO_Zee_MAXHTPTV1000_E_CMS.e5299_s3126_r9364_p3575_MiniNtuple.root              '
p624
(lp625
S'root://fax.mwt2.org:1094//pnfs/uchicago.edu/atlaslocalgroupdisk/rucio/user/schae/01/b8/user.schae.15676308._000001.MiniNtuple.root'
p626
aS'root://fax.mwt2.org:1094//pnfs/uchicago.edu/atlaslocalgroupdisk/rucio/user/schae/78/89/user.schae.15676308._000002.MiniNtuple.root'
p627
asS'user.schae.v15Loose.364131.Sherpa_221_NNPDF30NNLO_Ztautau_MAXHTPTV70_140_CVetoBVeto.e5307_s3126_r9364_p3575_MiniNtuple.root   '
p628
(lp629
S'root://fax.mwt2.org:1094//pnfs/uchicago.edu/atlaslocalgroupdisk/rucio/user/schae/bb/59/user.schae.15676481._000001.MiniNtuple.root'
p630
aS'root://fax.mwt2.org:1094//pnfs/uchicago.edu/atlaslocalgroupdisk/rucio/user/schae/5c/ed/user.schae.15676481._000004.MiniNtuple.root'
p631
aS'root://fax.mwt2.org:1094//pnfs/uchicago.edu/atlaslocalgroupdisk/rucio/user/schae/a4/70/user.schae.15676481._000005.MiniNtuple.root'
p632
asS'user.schae.v15Loose.364146.Sherpa_221_NNPDF30NNLO_Znunu_MAXHTPTV70_140_CFilterBVeto.e5308_s3126_r9364_p3575_MiniNtuple.root   '
p633
(lp634
S'root://fax.mwt2.org:1094//pnfs/uchicago.edu/atlaslocalgroupdisk/rucio/user/schae/b6/f6/user.schae.15676592._000001.MiniNtuple.root'
p635
aS'root://fax.mwt2.org:1094//pnfs/uchicago.edu/atlaslocalgroupdisk/rucio/user/schae/a1/41/user.schae.15676592._000002.MiniNtuple.root'
p636
asS'user.schae.v15Loose.363356.Sherpa_221_NNPDF30NNLO_ZqqZll.e5525_s3126_r9364_p3575_MiniNtuple.root                              '
p637
(lp638
S'root://fax.mwt2.org:1094//pnfs/uchicago.edu/atlaslocalgroupdisk/rucio/user/schae/ed/21/user.schae.15675801._000001.MiniNtuple.root'
p639
aS'root://fax.mwt2.org:1094//pnfs/uchicago.edu/atlaslocalgroupdisk/rucio/user/schae/a0/23/user.schae.15675801._000002.MiniNtuple.root'
p640
asS'user.schae.v15Loose.364179.Sherpa_221_NNPDF30NNLO_Wenu_MAXHTPTV280_500_CVetoBVeto.e5340_s3126_r9364_p3575_MiniNtuple.root     '
p641
(lp642
S'root://fax.mwt2.org:1094//pnfs/uchicago.edu/atlaslocalgroupdisk/rucio/user/schae/19/50/user.schae.15675958._000001.MiniNtuple.root'
p643
aS'root://fax.mwt2.org:1094//pnfs/uchicago.edu/atlaslocalgroupdisk/rucio/user/schae/fb/8f/user.schae.15675958._000002.MiniNtuple.root'
p644
aS'root://fax.mwt2.org:1094//pnfs/uchicago.edu/atlaslocalgroupdisk/rucio/user/schae/ba/93/user.schae.15675958._000003.MiniNtuple.root'
p645
aS'root://fax.mwt2.org:1094//pnfs/uchicago.edu/atlaslocalgroupdisk/rucio/user/schae/25/29/user.schae.15675958._000004.MiniNtuple.root'
p646
asS'user.schae.v15Loose.410470.PhPy8EG_A14_ttbar_hdamp258p75_nonallhad.e6337_s3126_r9364_p3575_MiniNtuple.root'
p647
(lp648
S'/share/t3data2/schae/v14Loose/user.schae.v15Loose.410470.PhPy8EG_A14_ttbar_hdamp258p75_nonallhad.e6337_s3126_r9364_p3575_MiniNtuple.root/user.schae.15676722._000001.MiniNtuple.root'
p649
aS'/share/t3data2/schae/v14Loose/user.schae.v15Loose.410470.PhPy8EG_A14_ttbar_hdamp258p75_nonallhad.e6337_s3126_r9364_p3575_MiniNtuple.root/user.schae.15676722._000002.MiniNtuple.root'
p650
aS'/share/t3data2/schae/v14Loose/user.schae.v15Loose.410470.PhPy8EG_A14_ttbar_hdamp258p75_nonallhad.e6337_s3126_r9364_p3575_MiniNtuple.root/user.schae.15676722._000003.MiniNtuple.root'
p651
aS'/share/t3data2/schae/v14Loose/user.schae.v15Loose.410470.PhPy8EG_A14_ttbar_hdamp258p75_nonallhad.e6337_s3126_r9364_p3575_MiniNtuple.root/user.schae.15676722._000004.MiniNtuple.root'
p652
aS'/share/t3data2/schae/v14Loose/user.schae.v15Loose.410470.PhPy8EG_A14_ttbar_hdamp258p75_nonallhad.e6337_s3126_r9364_p3575_MiniNtuple.root/user.schae.15676722._000005.MiniNtuple.root'
p653
aS'/share/t3data2/schae/v14Loose/user.schae.v15Loose.410470.PhPy8EG_A14_ttbar_hdamp258p75_nonallhad.e6337_s3126_r9364_p3575_MiniNtuple.root/user.schae.15676722._000006.MiniNtuple.root'
p654
aS'/share/t3data2/schae/v14Loose/user.schae.v15Loose.410470.PhPy8EG_A14_ttbar_hdamp258p75_nonallhad.e6337_s3126_r9364_p3575_MiniNtuple.root/user.schae.15676722._000007.MiniNtuple.root'
p655
aS'/share/t3data2/schae/v14Loose/user.schae.v15Loose.410470.PhPy8EG_A14_ttbar_hdamp258p75_nonallhad.e6337_s3126_r9364_p3575_MiniNtuple.root/user.schae.15676722._000008.MiniNtuple.root'
p656
aS'/share/t3data2/schae/v14Loose/user.schae.v15Loose.410470.PhPy8EG_A14_ttbar_hdamp258p75_nonallhad.e6337_s3126_r9364_p3575_MiniNtuple.root/user.schae.15676722._000009.MiniNtuple.root'
p657
asS'user.schae.v15Loose.308096.Sherpa_221_NNPDF30NNLO_Wenu2jets_Min_N_TChannel.e5789_s3126_r9364_p3575_MiniNtuple.root            '
p658
(lp659
S'root://fax.mwt2.org:1094//pnfs/uchicago.edu/atlaslocalgroupdisk/rucio/user/schae/11/53/user.schae.15675872._000001.MiniNtuple.root'
p660
as.