(dp0
S'user.ssevova.ZHdarkPhoton_v00.364113.Sherpa_221_NNPDF30NNLO_Zmumu_MAXHTPTV1000_E_CMS.e5271_s3126_r9364_p3870_MiniNtuple.root'
p1
(lp2
S'/afs/cern.ch/work/s/ssevova/public/dark-photon-atlas/ntuples/user.ssevova.ZHdarkPhoton_v00.364113.Sherpa_221_NNPDF30NNLO_Zmumu_MAXHTPTV1000_E_CMS.e5271_s3126_r9364_p3870_MiniNtuple.root/user.ssevova.20994012._000006.MiniNtuple.root'
p3
aS'/afs/cern.ch/work/s/ssevova/public/dark-photon-atlas/ntuples/user.ssevova.ZHdarkPhoton_v00.364113.Sherpa_221_NNPDF30NNLO_Zmumu_MAXHTPTV1000_E_CMS.e5271_s3126_r9364_p3870_MiniNtuple.root/user.ssevova.20994012._000008.MiniNtuple.root'
p4
aS'/afs/cern.ch/work/s/ssevova/public/dark-photon-atlas/ntuples/user.ssevova.ZHdarkPhoton_v00.364113.Sherpa_221_NNPDF30NNLO_Zmumu_MAXHTPTV1000_E_CMS.e5271_s3126_r9364_p3870_MiniNtuple.root/user.ssevova.20994012._000009.MiniNtuple.root'
p5
aS'/afs/cern.ch/work/s/ssevova/public/dark-photon-atlas/ntuples/user.ssevova.ZHdarkPhoton_v00.364113.Sherpa_221_NNPDF30NNLO_Zmumu_MAXHTPTV1000_E_CMS.e5271_s3126_r9364_p3870_MiniNtuple.root/user.ssevova.20994012._000010.MiniNtuple.root'
p6
asS'user.ssevova.ZHdarkPhoton_v00.410645.PowhegPythia8EvtGen_A14_singletop_schan_lept_antitop.e6527_s3126_r9364_p3870_MiniNtuple.root'
p7
(lp8
S'/afs/cern.ch/work/s/ssevova/public/dark-photon-atlas/ntuples/user.ssevova.ZHdarkPhoton_v00.410645.PowhegPythia8EvtGen_A14_singletop_schan_lept_antitop.e6527_s3126_r9364_p3870_MiniNtuple.root/user.ssevova.20994045._000001.MiniNtuple.root'
p9
aS'/afs/cern.ch/work/s/ssevova/public/dark-photon-atlas/ntuples/user.ssevova.ZHdarkPhoton_v00.410645.PowhegPythia8EvtGen_A14_singletop_schan_lept_antitop.e6527_s3126_r9364_p3870_MiniNtuple.root/user.ssevova.20994045._000002.MiniNtuple.root'
p10
asS'user.ssevova.ZHdarkPhoton_v00.364506.Sherpa_222_NNPDF30NNLO_mumugamma_pty_15_35.e5988_s3126_r9364_p3652_MiniNtuple.root'
p11
(lp12
S'/afs/cern.ch/work/s/ssevova/public/dark-photon-atlas/ntuples/user.ssevova.ZHdarkPhoton_v00.364506.Sherpa_222_NNPDF30NNLO_mumugamma_pty_15_35.e5988_s3126_r9364_p3652_MiniNtuple.root/user.ssevova.20993957._000001.MiniNtuple.root'
p13
aS'/afs/cern.ch/work/s/ssevova/public/dark-photon-atlas/ntuples/user.ssevova.ZHdarkPhoton_v00.364506.Sherpa_222_NNPDF30NNLO_mumugamma_pty_15_35.e5988_s3126_r9364_p3652_MiniNtuple.root/user.ssevova.20993957._000002.MiniNtuple.root'
p14
asS'user.ssevova.ZHdarkPhoton_v00.364250.Sherpa_222_NNPDF30NNLO_llll.e5894_s3126_r9364_p3872_MiniNtuple.root'
p15
(lp16
S'/afs/cern.ch/work/s/ssevova/public/dark-photon-atlas/ntuples/user.ssevova.ZHdarkPhoton_v00.364250.Sherpa_222_NNPDF30NNLO_llll.e5894_s3126_r9364_p3872_MiniNtuple.root/user.ssevova.20993983._000001.MiniNtuple.root'
p17
aS'/afs/cern.ch/work/s/ssevova/public/dark-photon-atlas/ntuples/user.ssevova.ZHdarkPhoton_v00.364250.Sherpa_222_NNPDF30NNLO_llll.e5894_s3126_r9364_p3872_MiniNtuple.root/user.ssevova.20993983._000002.MiniNtuple.root'
p18
aS'/afs/cern.ch/work/s/ssevova/public/dark-photon-atlas/ntuples/user.ssevova.ZHdarkPhoton_v00.364250.Sherpa_222_NNPDF30NNLO_llll.e5894_s3126_r9364_p3872_MiniNtuple.root/user.ssevova.20993983._000003.MiniNtuple.root'
p19
aS'/afs/cern.ch/work/s/ssevova/public/dark-photon-atlas/ntuples/user.ssevova.ZHdarkPhoton_v00.364250.Sherpa_222_NNPDF30NNLO_llll.e5894_s3126_r9364_p3872_MiniNtuple.root/user.ssevova.20993983._000004.MiniNtuple.root'
p20
aS'/afs/cern.ch/work/s/ssevova/public/dark-photon-atlas/ntuples/user.ssevova.ZHdarkPhoton_v00.364250.Sherpa_222_NNPDF30NNLO_llll.e5894_s3126_r9364_p3872_MiniNtuple.root/user.ssevova.20993983._000005.MiniNtuple.root'
p21
aS'/afs/cern.ch/work/s/ssevova/public/dark-photon-atlas/ntuples/user.ssevova.ZHdarkPhoton_v00.364250.Sherpa_222_NNPDF30NNLO_llll.e5894_s3126_r9364_p3872_MiniNtuple.root/user.ssevova.20993983._000006.MiniNtuple.root'
p22
asS'user.ssevova.ZHyyD_v00.364107.Sherpa_221_NNPDF30NNLO_Zmumu_MAXHTPTV140_280_CFilterBVeto.e5271_s3126_r9364_p3870_MiniNtuple.root'
p23
(lp24
S'/afs/cern.ch/work/s/ssevova/public/dark-photon-atlas/ntuples/user.ssevova.ZHyyD_v00.364107.Sherpa_221_NNPDF30NNLO_Zmumu_MAXHTPTV140_280_CFilterBVeto.e5271_s3126_r9364_p3870_MiniNtuple.root/user.ssevova.20994149._000001.MiniNtuple.root'
p25
aS'/afs/cern.ch/work/s/ssevova/public/dark-photon-atlas/ntuples/user.ssevova.ZHyyD_v00.364107.Sherpa_221_NNPDF30NNLO_Zmumu_MAXHTPTV140_280_CFilterBVeto.e5271_s3126_r9364_p3870_MiniNtuple.root/user.ssevova.20994149._000002.MiniNtuple.root'
p26
aS'/afs/cern.ch/work/s/ssevova/public/dark-photon-atlas/ntuples/user.ssevova.ZHyyD_v00.364107.Sherpa_221_NNPDF30NNLO_Zmumu_MAXHTPTV140_280_CFilterBVeto.e5271_s3126_r9364_p3870_MiniNtuple.root/user.ssevova.20994149._000003.MiniNtuple.root'
p27
aS'/afs/cern.ch/work/s/ssevova/public/dark-photon-atlas/ntuples/user.ssevova.ZHyyD_v00.364107.Sherpa_221_NNPDF30NNLO_Zmumu_MAXHTPTV140_280_CFilterBVeto.e5271_s3126_r9364_p3870_MiniNtuple.root/user.ssevova.20994149._000004.MiniNtuple.root'
p28
aS'/afs/cern.ch/work/s/ssevova/public/dark-photon-atlas/ntuples/user.ssevova.ZHyyD_v00.364107.Sherpa_221_NNPDF30NNLO_Zmumu_MAXHTPTV140_280_CFilterBVeto.e5271_s3126_r9364_p3870_MiniNtuple.root/user.ssevova.20994149._000005.MiniNtuple.root'
p29
asS'user.ssevova.ZHyyD_v00.364106.Sherpa_221_NNPDF30NNLO_Zmumu_MAXHTPTV140_280_CVetoBVeto.e5271_s3126_r9364_p3870_MiniNtuple.root'
p30
(lp31
S'/afs/cern.ch/work/s/ssevova/public/dark-photon-atlas/ntuples/user.ssevova.ZHyyD_v00.364106.Sherpa_221_NNPDF30NNLO_Zmumu_MAXHTPTV140_280_CVetoBVeto.e5271_s3126_r9364_p3870_MiniNtuple.root/user.ssevova.20994158._000001.MiniNtuple.root'
p32
aS'/afs/cern.ch/work/s/ssevova/public/dark-photon-atlas/ntuples/user.ssevova.ZHyyD_v00.364106.Sherpa_221_NNPDF30NNLO_Zmumu_MAXHTPTV140_280_CVetoBVeto.e5271_s3126_r9364_p3870_MiniNtuple.root/user.ssevova.20994158._000002.MiniNtuple.root'
p33
aS'/afs/cern.ch/work/s/ssevova/public/dark-photon-atlas/ntuples/user.ssevova.ZHyyD_v00.364106.Sherpa_221_NNPDF30NNLO_Zmumu_MAXHTPTV140_280_CVetoBVeto.e5271_s3126_r9364_p3870_MiniNtuple.root/user.ssevova.20994158._000003.MiniNtuple.root'
p34
aS'/afs/cern.ch/work/s/ssevova/public/dark-photon-atlas/ntuples/user.ssevova.ZHyyD_v00.364106.Sherpa_221_NNPDF30NNLO_Zmumu_MAXHTPTV140_280_CVetoBVeto.e5271_s3126_r9364_p3870_MiniNtuple.root/user.ssevova.20994158._000004.MiniNtuple.root'
p35
aS'/afs/cern.ch/work/s/ssevova/public/dark-photon-atlas/ntuples/user.ssevova.ZHyyD_v00.364106.Sherpa_221_NNPDF30NNLO_Zmumu_MAXHTPTV140_280_CVetoBVeto.e5271_s3126_r9364_p3870_MiniNtuple.root/user.ssevova.20994158._000005.MiniNtuple.root'
p36
aS'/afs/cern.ch/work/s/ssevova/public/dark-photon-atlas/ntuples/user.ssevova.ZHyyD_v00.364106.Sherpa_221_NNPDF30NNLO_Zmumu_MAXHTPTV140_280_CVetoBVeto.e5271_s3126_r9364_p3870_MiniNtuple.root/user.ssevova.20994158._000006.MiniNtuple.root'
p37
asS'user.ssevova.ZHdarkPhoton_v00.364243.Sherpa_222_NNPDF30NNLO_WWZ_4l2v_EW6.e5887_s3126_r9364_p3872_MiniNtuple.root'
p38
(lp39
S'/afs/cern.ch/work/s/ssevova/public/dark-photon-atlas/ntuples/user.ssevova.ZHdarkPhoton_v00.364243.Sherpa_222_NNPDF30NNLO_WWZ_4l2v_EW6.e5887_s3126_r9364_p3872_MiniNtuple.root/user.ssevova.20993976._000001.MiniNtuple.root'
p40
asS'user.ssevova.ZHdarkPhoton_v00.364254.Sherpa_222_NNPDF30NNLO_llvv.e5916_s3126_r9364_p3870_MiniNtuple.root'
p41
(lp42
S'/afs/cern.ch/work/s/ssevova/public/dark-photon-atlas/ntuples/user.ssevova.ZHdarkPhoton_v00.364254.Sherpa_222_NNPDF30NNLO_llvv.e5916_s3126_r9364_p3870_MiniNtuple.root/user.ssevova.20993985._000001.MiniNtuple.root'
p43
aS'/afs/cern.ch/work/s/ssevova/public/dark-photon-atlas/ntuples/user.ssevova.ZHdarkPhoton_v00.364254.Sherpa_222_NNPDF30NNLO_llvv.e5916_s3126_r9364_p3870_MiniNtuple.root/user.ssevova.20993985._000002.MiniNtuple.root'
p44
aS'/afs/cern.ch/work/s/ssevova/public/dark-photon-atlas/ntuples/user.ssevova.ZHdarkPhoton_v00.364254.Sherpa_222_NNPDF30NNLO_llvv.e5916_s3126_r9364_p3870_MiniNtuple.root/user.ssevova.20993985._000003.MiniNtuple.root'
p45
aS'/afs/cern.ch/work/s/ssevova/public/dark-photon-atlas/ntuples/user.ssevova.ZHdarkPhoton_v00.364254.Sherpa_222_NNPDF30NNLO_llvv.e5916_s3126_r9364_p3870_MiniNtuple.root/user.ssevova.20993985._000004.MiniNtuple.root'
p46
asS'user.ssevova.ZHdarkPhoton_v00.410472.PhPy8EG_A14_ttbar_hdamp258p75_dil.e6348_s3126_r9364_p3870_MiniNtuple.root'
p47
(lp48
S'/afs/cern.ch/work/s/ssevova/public/dark-photon-atlas/ntuples/user.ssevova.ZHdarkPhoton_v00.410472.PhPy8EG_A14_ttbar_hdamp258p75_dil.e6348_s3126_r9364_p3870_MiniNtuple.root/user.ssevova.20994026._000001.MiniNtuple.root'
p49
aS'/afs/cern.ch/work/s/ssevova/public/dark-photon-atlas/ntuples/user.ssevova.ZHdarkPhoton_v00.410472.PhPy8EG_A14_ttbar_hdamp258p75_dil.e6348_s3126_r9364_p3870_MiniNtuple.root/user.ssevova.20994026._000002.MiniNtuple.root'
p50
aS'/afs/cern.ch/work/s/ssevova/public/dark-photon-atlas/ntuples/user.ssevova.ZHdarkPhoton_v00.410472.PhPy8EG_A14_ttbar_hdamp258p75_dil.e6348_s3126_r9364_p3870_MiniNtuple.root/user.ssevova.20994026._000003.MiniNtuple.root'
p51
aS'/afs/cern.ch/work/s/ssevova/public/dark-photon-atlas/ntuples/user.ssevova.ZHdarkPhoton_v00.410472.PhPy8EG_A14_ttbar_hdamp258p75_dil.e6348_s3126_r9364_p3870_MiniNtuple.root/user.ssevova.20994026._000004.MiniNtuple.root'
p52
aS'/afs/cern.ch/work/s/ssevova/public/dark-photon-atlas/ntuples/user.ssevova.ZHdarkPhoton_v00.410472.PhPy8EG_A14_ttbar_hdamp258p75_dil.e6348_s3126_r9364_p3870_MiniNtuple.root/user.ssevova.20994026._000005.MiniNtuple.root'
p53
aS'/afs/cern.ch/work/s/ssevova/public/dark-photon-atlas/ntuples/user.ssevova.ZHdarkPhoton_v00.410472.PhPy8EG_A14_ttbar_hdamp258p75_dil.e6348_s3126_r9364_p3870_MiniNtuple.root/user.ssevova.20994026._000006.MiniNtuple.root'
p54
aS'/afs/cern.ch/work/s/ssevova/public/dark-photon-atlas/ntuples/user.ssevova.ZHdarkPhoton_v00.410472.PhPy8EG_A14_ttbar_hdamp258p75_dil.e6348_s3126_r9364_p3870_MiniNtuple.root/user.ssevova.20994026._000007.MiniNtuple.root'
p55
aS'/afs/cern.ch/work/s/ssevova/public/dark-photon-atlas/ntuples/user.ssevova.ZHdarkPhoton_v00.410472.PhPy8EG_A14_ttbar_hdamp258p75_dil.e6348_s3126_r9364_p3870_MiniNtuple.root/user.ssevova.20994026._000008.MiniNtuple.root'
p56
aS'/afs/cern.ch/work/s/ssevova/public/dark-photon-atlas/ntuples/user.ssevova.ZHdarkPhoton_v00.410472.PhPy8EG_A14_ttbar_hdamp258p75_dil.e6348_s3126_r9364_p3870_MiniNtuple.root/user.ssevova.20994026._000009.MiniNtuple.root'
p57
aS'/afs/cern.ch/work/s/ssevova/public/dark-photon-atlas/ntuples/user.ssevova.ZHdarkPhoton_v00.410472.PhPy8EG_A14_ttbar_hdamp258p75_dil.e6348_s3126_r9364_p3870_MiniNtuple.root/user.ssevova.20994026._000010.MiniNtuple.root'
p58
aS'/afs/cern.ch/work/s/ssevova/public/dark-photon-atlas/ntuples/user.ssevova.ZHdarkPhoton_v00.410472.PhPy8EG_A14_ttbar_hdamp258p75_dil.e6348_s3126_r9364_p3870_MiniNtuple.root/user.ssevova.20994026._000011.MiniNtuple.root'
p59
aS'/afs/cern.ch/work/s/ssevova/public/dark-photon-atlas/ntuples/user.ssevova.ZHdarkPhoton_v00.410472.PhPy8EG_A14_ttbar_hdamp258p75_dil.e6348_s3126_r9364_p3870_MiniNtuple.root/user.ssevova.20994026._000012.MiniNtuple.root'
p60
aS'/afs/cern.ch/work/s/ssevova/public/dark-photon-atlas/ntuples/user.ssevova.ZHdarkPhoton_v00.410472.PhPy8EG_A14_ttbar_hdamp258p75_dil.e6348_s3126_r9364_p3870_MiniNtuple.root/user.ssevova.20994026._000013.MiniNtuple.root'
p61
aS'/afs/cern.ch/work/s/ssevova/public/dark-photon-atlas/ntuples/user.ssevova.ZHdarkPhoton_v00.410472.PhPy8EG_A14_ttbar_hdamp258p75_dil.e6348_s3126_r9364_p3870_MiniNtuple.root/user.ssevova.20994026._000014.MiniNtuple.root'
p62
aS'/afs/cern.ch/work/s/ssevova/public/dark-photon-atlas/ntuples/user.ssevova.ZHdarkPhoton_v00.410472.PhPy8EG_A14_ttbar_hdamp258p75_dil.e6348_s3126_r9364_p3870_MiniNtuple.root/user.ssevova.20994026._000015.MiniNtuple.root'
p63
aS'/afs/cern.ch/work/s/ssevova/public/dark-photon-atlas/ntuples/user.ssevova.ZHdarkPhoton_v00.410472.PhPy8EG_A14_ttbar_hdamp258p75_dil.e6348_s3126_r9364_p3870_MiniNtuple.root/user.ssevova.20994026._000016.MiniNtuple.root'
p64
aS'/afs/cern.ch/work/s/ssevova/public/dark-photon-atlas/ntuples/user.ssevova.ZHdarkPhoton_v00.410472.PhPy8EG_A14_ttbar_hdamp258p75_dil.e6348_s3126_r9364_p3870_MiniNtuple.root/user.ssevova.20994026._000017.MiniNtuple.root'
p65
aS'/afs/cern.ch/work/s/ssevova/public/dark-photon-atlas/ntuples/user.ssevova.ZHdarkPhoton_v00.410472.PhPy8EG_A14_ttbar_hdamp258p75_dil.e6348_s3126_r9364_p3870_MiniNtuple.root/user.ssevova.20994026._000018.MiniNtuple.root'
p66
aS'/afs/cern.ch/work/s/ssevova/public/dark-photon-atlas/ntuples/user.ssevova.ZHdarkPhoton_v00.410472.PhPy8EG_A14_ttbar_hdamp258p75_dil.e6348_s3126_r9364_p3870_MiniNtuple.root/user.ssevova.20994026._000019.MiniNtuple.root'
p67
aS'/afs/cern.ch/work/s/ssevova/public/dark-photon-atlas/ntuples/user.ssevova.ZHdarkPhoton_v00.410472.PhPy8EG_A14_ttbar_hdamp258p75_dil.e6348_s3126_r9364_p3870_MiniNtuple.root/user.ssevova.20994026._000020.MiniNtuple.root'
p68
aS'/afs/cern.ch/work/s/ssevova/public/dark-photon-atlas/ntuples/user.ssevova.ZHdarkPhoton_v00.410472.PhPy8EG_A14_ttbar_hdamp258p75_dil.e6348_s3126_r9364_p3870_MiniNtuple.root/user.ssevova.20994026._000021.MiniNtuple.root'
p69
aS'/afs/cern.ch/work/s/ssevova/public/dark-photon-atlas/ntuples/user.ssevova.ZHdarkPhoton_v00.410472.PhPy8EG_A14_ttbar_hdamp258p75_dil.e6348_s3126_r9364_p3870_MiniNtuple.root/user.ssevova.20994026._000022.MiniNtuple.root'
p70
asS'user.ssevova.ZHdarkPhoton_v00.364108.Sherpa_221_NNPDF30NNLO_Zmumu_MAXHTPTV140_280_BFilter.e5271_s3126_r9364_p3870_MiniNtuple.root'
p71
(lp72
S'/afs/cern.ch/work/s/ssevova/public/dark-photon-atlas/ntuples/user.ssevova.ZHdarkPhoton_v00.364108.Sherpa_221_NNPDF30NNLO_Zmumu_MAXHTPTV140_280_BFilter.e5271_s3126_r9364_p3870_MiniNtuple.root/user.ssevova.20994001._000001.MiniNtuple.root'
p73
aS'/afs/cern.ch/work/s/ssevova/public/dark-photon-atlas/ntuples/user.ssevova.ZHdarkPhoton_v00.364108.Sherpa_221_NNPDF30NNLO_Zmumu_MAXHTPTV140_280_BFilter.e5271_s3126_r9364_p3870_MiniNtuple.root/user.ssevova.20994001._000002.MiniNtuple.root'
p74
aS'/afs/cern.ch/work/s/ssevova/public/dark-photon-atlas/ntuples/user.ssevova.ZHdarkPhoton_v00.364108.Sherpa_221_NNPDF30NNLO_Zmumu_MAXHTPTV140_280_BFilter.e5271_s3126_r9364_p3870_MiniNtuple.root/user.ssevova.20994001._000003.MiniNtuple.root'
p75
aS'/afs/cern.ch/work/s/ssevova/public/dark-photon-atlas/ntuples/user.ssevova.ZHdarkPhoton_v00.364108.Sherpa_221_NNPDF30NNLO_Zmumu_MAXHTPTV140_280_BFilter.e5271_s3126_r9364_p3870_MiniNtuple.root/user.ssevova.20994001._000004.MiniNtuple.root'
p76
asS'user.ssevova.ZHdarkPhoton_v00.364509.Sherpa_222_NNPDF30NNLO_mumugamma_pty_140_E_CMS.e5928_s3126_r9364_p3872_MiniNtuple.root'
p77
(lp78
S'/afs/cern.ch/work/s/ssevova/public/dark-photon-atlas/ntuples/user.ssevova.ZHdarkPhoton_v00.364509.Sherpa_222_NNPDF30NNLO_mumugamma_pty_140_E_CMS.e5928_s3126_r9364_p3872_MiniNtuple.root/user.ssevova.20993965._000001.MiniNtuple.root'
p79
aS'/afs/cern.ch/work/s/ssevova/public/dark-photon-atlas/ntuples/user.ssevova.ZHdarkPhoton_v00.364509.Sherpa_222_NNPDF30NNLO_mumugamma_pty_140_E_CMS.e5928_s3126_r9364_p3872_MiniNtuple.root/user.ssevova.20993965._000002.MiniNtuple.root'
p80
aS'/afs/cern.ch/work/s/ssevova/public/dark-photon-atlas/ntuples/user.ssevova.ZHdarkPhoton_v00.364509.Sherpa_222_NNPDF30NNLO_mumugamma_pty_140_E_CMS.e5928_s3126_r9364_p3872_MiniNtuple.root/user.ssevova.20993965._000003.MiniNtuple.root'
p81
asS'user.ssevova.ZHdarkPhoton_v00.364103.Sherpa_221_NNPDF30NNLO_Zmumu_MAXHTPTV70_140_CVetoBVeto.e5271_s3126_r9364_p3870_MiniNtuple.root'
p82
(lp83
S'/afs/cern.ch/work/s/ssevova/public/dark-photon-atlas/ntuples/user.ssevova.ZHdarkPhoton_v00.364103.Sherpa_221_NNPDF30NNLO_Zmumu_MAXHTPTV70_140_CVetoBVeto.e5271_s3126_r9364_p3870_MiniNtuple.root/user.ssevova.20993988._000001.MiniNtuple.root'
p84
aS'/afs/cern.ch/work/s/ssevova/public/dark-photon-atlas/ntuples/user.ssevova.ZHdarkPhoton_v00.364103.Sherpa_221_NNPDF30NNLO_Zmumu_MAXHTPTV70_140_CVetoBVeto.e5271_s3126_r9364_p3870_MiniNtuple.root/user.ssevova.20993988._000002.MiniNtuple.root'
p85
aS'/afs/cern.ch/work/s/ssevova/public/dark-photon-atlas/ntuples/user.ssevova.ZHdarkPhoton_v00.364103.Sherpa_221_NNPDF30NNLO_Zmumu_MAXHTPTV70_140_CVetoBVeto.e5271_s3126_r9364_p3870_MiniNtuple.root/user.ssevova.20993988._000003.MiniNtuple.root'
p86
asS'user.ssevova.ZHdarkPhoton_v00.364101.Sherpa_221_NNPDF30NNLO_Zmumu_MAXHTPTV0_70_CFilterBVeto.e5271_s3126_r9364_p3870_MiniNtuple.root'
p87
(lp88
S'/afs/cern.ch/work/s/ssevova/public/dark-photon-atlas/ntuples/user.ssevova.ZHdarkPhoton_v00.364101.Sherpa_221_NNPDF30NNLO_Zmumu_MAXHTPTV0_70_CFilterBVeto.e5271_s3126_r9364_p3870_MiniNtuple.root/user.ssevova.20993986._000001.MiniNtuple.root'
p89
aS'/afs/cern.ch/work/s/ssevova/public/dark-photon-atlas/ntuples/user.ssevova.ZHdarkPhoton_v00.364101.Sherpa_221_NNPDF30NNLO_Zmumu_MAXHTPTV0_70_CFilterBVeto.e5271_s3126_r9364_p3870_MiniNtuple.root/user.ssevova.20993986._000002.MiniNtuple.root'
p90
aS'/afs/cern.ch/work/s/ssevova/public/dark-photon-atlas/ntuples/user.ssevova.ZHdarkPhoton_v00.364101.Sherpa_221_NNPDF30NNLO_Zmumu_MAXHTPTV0_70_CFilterBVeto.e5271_s3126_r9364_p3870_MiniNtuple.root/user.ssevova.20993986._000003.MiniNtuple.root'
p91
aS'/afs/cern.ch/work/s/ssevova/public/dark-photon-atlas/ntuples/user.ssevova.ZHdarkPhoton_v00.364101.Sherpa_221_NNPDF30NNLO_Zmumu_MAXHTPTV0_70_CFilterBVeto.e5271_s3126_r9364_p3870_MiniNtuple.root/user.ssevova.20993986._000004.MiniNtuple.root'
p92
asS'user.ssevova.ZHdarkPhoton_v00.364242.Sherpa_222_NNPDF30NNLO_WWW_3l3v_EW6.e5887_s3126_r9364_p3870_MiniNtuple.root'
p93
(lp94
S'/afs/cern.ch/work/s/ssevova/public/dark-photon-atlas/ntuples/user.ssevova.ZHdarkPhoton_v00.364242.Sherpa_222_NNPDF30NNLO_WWW_3l3v_EW6.e5887_s3126_r9364_p3870_MiniNtuple.root/user.ssevova.20993975._000001.MiniNtuple.root'
p95
asS'user.ssevova.ZHdarkPhoton_v00.364284.Sherpa_222_NNPDF30NNLO_lllvjj_EW6.e6055_s3126_r9364_p3870_MiniNtuple.root'
p96
(lp97
S'/afs/cern.ch/work/s/ssevova/public/dark-photon-atlas/ntuples/user.ssevova.ZHdarkPhoton_v00.364284.Sherpa_222_NNPDF30NNLO_lllvjj_EW6.e6055_s3126_r9364_p3870_MiniNtuple.root/user.ssevova.20993974._000001.MiniNtuple.root'
p98
aS'/afs/cern.ch/work/s/ssevova/public/dark-photon-atlas/ntuples/user.ssevova.ZHdarkPhoton_v00.364284.Sherpa_222_NNPDF30NNLO_lllvjj_EW6.e6055_s3126_r9364_p3870_MiniNtuple.root/user.ssevova.20993974._000004.MiniNtuple.root'
p99
aS'/afs/cern.ch/work/s/ssevova/public/dark-photon-atlas/ntuples/user.ssevova.ZHdarkPhoton_v00.364284.Sherpa_222_NNPDF30NNLO_lllvjj_EW6.e6055_s3126_r9364_p3870_MiniNtuple.root/user.ssevova.20993974._000005.MiniNtuple.root'
p100
asS'user.ssevova.ZHdarkPhoton_v00.364505.Sherpa_222_NNPDF30NNLO_mumugamma_pty_7_15.e5928_s3126_r9364_p3872_MiniNtuple.root'
p101
(lp102
S'/afs/cern.ch/work/s/ssevova/public/dark-photon-atlas/ntuples/user.ssevova.ZHdarkPhoton_v00.364505.Sherpa_222_NNPDF30NNLO_mumugamma_pty_7_15.e5928_s3126_r9364_p3872_MiniNtuple.root/user.ssevova.20993955._000001.MiniNtuple.root'
p103
aS'/afs/cern.ch/work/s/ssevova/public/dark-photon-atlas/ntuples/user.ssevova.ZHdarkPhoton_v00.364505.Sherpa_222_NNPDF30NNLO_mumugamma_pty_7_15.e5928_s3126_r9364_p3872_MiniNtuple.root/user.ssevova.20993955._000002.MiniNtuple.root'
p104
asS'user.ssevova.ZHdarkPhoton_v00.364249.Sherpa_222_NNPDF30NNLO_ZZZ_2l4v_EW6.e5887_s3126_r9364_p3870_MiniNtuple.root'
p105
(lp106
S'/afs/cern.ch/work/s/ssevova/public/dark-photon-atlas/ntuples/user.ssevova.ZHdarkPhoton_v00.364249.Sherpa_222_NNPDF30NNLO_ZZZ_2l4v_EW6.e5887_s3126_r9364_p3870_MiniNtuple.root/user.ssevova.20993982._000001.MiniNtuple.root'
p107
asS'user.ssevova.ZHdarkPhoton_v00.364100.Sherpa_221_NNPDF30NNLO_Zmumu_MAXHTPTV0_70_CVetoBVeto.e5271_s3126_r9364_p3870_MiniNtuple.root'
p108
(lp109
S'/afs/cern.ch/work/s/ssevova/public/dark-photon-atlas/ntuples/user.ssevova.ZHdarkPhoton_v00.364100.Sherpa_221_NNPDF30NNLO_Zmumu_MAXHTPTV0_70_CVetoBVeto.e5271_s3126_r9364_p3870_MiniNtuple.root/user.ssevova.20993987._000001.MiniNtuple.root'
p110
aS'/afs/cern.ch/work/s/ssevova/public/dark-photon-atlas/ntuples/user.ssevova.ZHdarkPhoton_v00.364100.Sherpa_221_NNPDF30NNLO_Zmumu_MAXHTPTV0_70_CVetoBVeto.e5271_s3126_r9364_p3870_MiniNtuple.root/user.ssevova.20993987._000002.MiniNtuple.root.part'
p111
aS'/afs/cern.ch/work/s/ssevova/public/dark-photon-atlas/ntuples/user.ssevova.ZHdarkPhoton_v00.364100.Sherpa_221_NNPDF30NNLO_Zmumu_MAXHTPTV0_70_CVetoBVeto.e5271_s3126_r9364_p3870_MiniNtuple.root/user.ssevova.20993987._000003.MiniNtuple.root'
p112
asS'user.ssevova.ZHdarkPhoton_v00.410646.PowhegPythia8EvtGen_A14_Wt_DR_inclusive_top.e6552_s3126_r9364_p3870_MiniNtuple.root'
p113
(lp114
S'/afs/cern.ch/work/s/ssevova/public/dark-photon-atlas/ntuples/user.ssevova.ZHdarkPhoton_v00.410646.PowhegPythia8EvtGen_A14_Wt_DR_inclusive_top.e6552_s3126_r9364_p3870_MiniNtuple.root/user.ssevova.20994038._000001.MiniNtuple.root'
p115
aS'/afs/cern.ch/work/s/ssevova/public/dark-photon-atlas/ntuples/user.ssevova.ZHdarkPhoton_v00.410646.PowhegPythia8EvtGen_A14_Wt_DR_inclusive_top.e6552_s3126_r9364_p3870_MiniNtuple.root/user.ssevova.20994038._000002.MiniNtuple.root'
p116
asS'user.ssevova.ZHdarkPhoton_v00.364246.Sherpa_222_NNPDF30NNLO_WZZ_3l3v_EW6.e5887_s3126_r9364_p3870_MiniNtuple.root'
p117
(lp118
S'/afs/cern.ch/work/s/ssevova/public/dark-photon-atlas/ntuples/user.ssevova.ZHdarkPhoton_v00.364246.Sherpa_222_NNPDF30NNLO_WZZ_3l3v_EW6.e5887_s3126_r9364_p3870_MiniNtuple.root/user.ssevova.20993979._000001.MiniNtuple.root'
p119
asS'user.ssevova.ZHdarkPhoton_v00.364507.Sherpa_222_NNPDF30NNLO_mumugamma_pty_35_70.e5928_s3126_r9364_p3872_MiniNtuple.root'
p120
(lp121
S'/afs/cern.ch/work/s/ssevova/public/dark-photon-atlas/ntuples/user.ssevova.ZHdarkPhoton_v00.364507.Sherpa_222_NNPDF30NNLO_mumugamma_pty_35_70.e5928_s3126_r9364_p3872_MiniNtuple.root/user.ssevova.20993960._000001.MiniNtuple.root'
p122
asS'user.ssevova.ZHdarkPhoton_v00.410647.PowhegPythia8EvtGen_A14_Wt_DR_inclusive_antitop.e6552_s3126_r9364_p3870_MiniNtuple.root'
p123
(lp124
S'/afs/cern.ch/work/s/ssevova/public/dark-photon-atlas/ntuples/user.ssevova.ZHdarkPhoton_v00.410647.PowhegPythia8EvtGen_A14_Wt_DR_inclusive_antitop.e6552_s3126_r9364_p3870_MiniNtuple.root/user.ssevova.20994041._000002.MiniNtuple.root'
p125
aS'/afs/cern.ch/work/s/ssevova/public/dark-photon-atlas/ntuples/user.ssevova.ZHdarkPhoton_v00.410647.PowhegPythia8EvtGen_A14_Wt_DR_inclusive_antitop.e6552_s3126_r9364_p3870_MiniNtuple.root/user.ssevova.20994041._000003.MiniNtuple.root'
p126
aS'/afs/cern.ch/work/s/ssevova/public/dark-photon-atlas/ntuples/user.ssevova.ZHdarkPhoton_v00.410647.PowhegPythia8EvtGen_A14_Wt_DR_inclusive_antitop.e6552_s3126_r9364_p3870_MiniNtuple.root/user.ssevova.20994041._000004.MiniNtuple.root'
p127
asS'user.ssevova.ZHdarkPhoton_v00.364253.Sherpa_222_NNPDF30NNLO_lllv.e5916_s3126_r9364_p3870_MiniNtuple.root'
p128
(lp129
S'/afs/cern.ch/work/s/ssevova/public/dark-photon-atlas/ntuples/user.ssevova.ZHdarkPhoton_v00.364253.Sherpa_222_NNPDF30NNLO_lllv.e5916_s3126_r9364_p3870_MiniNtuple.root/user.ssevova.20993984._000001.MiniNtuple.root'
p130
aS'/afs/cern.ch/work/s/ssevova/public/dark-photon-atlas/ntuples/user.ssevova.ZHdarkPhoton_v00.364253.Sherpa_222_NNPDF30NNLO_lllv.e5916_s3126_r9364_p3870_MiniNtuple.root/user.ssevova.20993984._000002.MiniNtuple.root'
p131
aS'/afs/cern.ch/work/s/ssevova/public/dark-photon-atlas/ntuples/user.ssevova.ZHdarkPhoton_v00.364253.Sherpa_222_NNPDF30NNLO_lllv.e5916_s3126_r9364_p3870_MiniNtuple.root/user.ssevova.20993984._000003.MiniNtuple.root'
p132
aS'/afs/cern.ch/work/s/ssevova/public/dark-photon-atlas/ntuples/user.ssevova.ZHdarkPhoton_v00.364253.Sherpa_222_NNPDF30NNLO_lllv.e5916_s3126_r9364_p3870_MiniNtuple.root/user.ssevova.20993984._000004.MiniNtuple.root'
p133
aS'/afs/cern.ch/work/s/ssevova/public/dark-photon-atlas/ntuples/user.ssevova.ZHdarkPhoton_v00.364253.Sherpa_222_NNPDF30NNLO_lllv.e5916_s3126_r9364_p3870_MiniNtuple.root/user.ssevova.20993984._000005.MiniNtuple.root'
p134
asS'user.ssevova.ZHdarkPhoton_v00.364285.Sherpa_222_NNPDF30NNLO_llvvjj_EW6.e6055_s3126_r9364_p3870_MiniNtuple.root'
p135
(lp136
S'/afs/cern.ch/work/s/ssevova/public/dark-photon-atlas/ntuples/user.ssevova.ZHdarkPhoton_v00.364285.Sherpa_222_NNPDF30NNLO_llvvjj_EW6.e6055_s3126_r9364_p3870_MiniNtuple.root/user.ssevova.20993971._000001.MiniNtuple.root'
p137
asS'user.ssevova.ZHdarkPhoton_v00.410658.PhPy8EG_A14_tchan_BW50_lept_top.e6671_s3126_r9364_p3870_MiniNtuple.root'
p138
(lp139
S'/afs/cern.ch/work/s/ssevova/public/dark-photon-atlas/ntuples/user.ssevova.ZHdarkPhoton_v00.410658.PhPy8EG_A14_tchan_BW50_lept_top.e6671_s3126_r9364_p3870_MiniNtuple.root/user.ssevova.20994029._000001.MiniNtuple.root'
p140
aS'/afs/cern.ch/work/s/ssevova/public/dark-photon-atlas/ntuples/user.ssevova.ZHdarkPhoton_v00.410658.PhPy8EG_A14_tchan_BW50_lept_top.e6671_s3126_r9364_p3870_MiniNtuple.root/user.ssevova.20994029._000002.MiniNtuple.root'
p141
asS'user.ssevova.ZHdarkPhoton_v00.364248.Sherpa_222_NNPDF30NNLO_ZZZ_4l2v_EW6.e5887_s3126_r9364_p3872_MiniNtuple.root'
p142
(lp143
S'/afs/cern.ch/work/s/ssevova/public/dark-photon-atlas/ntuples/user.ssevova.ZHdarkPhoton_v00.364248.Sherpa_222_NNPDF30NNLO_ZZZ_4l2v_EW6.e5887_s3126_r9364_p3872_MiniNtuple.root/user.ssevova.20993981._000001.MiniNtuple.root'
p144
asS'user.ssevova.ZHyyD_v00.364104.Sherpa_221_NNPDF30NNLO_Zmumu_MAXHTPTV70_140_CFilterBVeto.e5271_s3126_r9364_p3870_MiniNtuple.root'
p145
(lp146
S'/afs/cern.ch/work/s/ssevova/public/dark-photon-atlas/ntuples/user.ssevova.ZHyyD_v00.364104.Sherpa_221_NNPDF30NNLO_Zmumu_MAXHTPTV70_140_CFilterBVeto.e5271_s3126_r9364_p3870_MiniNtuple.root/user.ssevova.20994146._000001.MiniNtuple.root'
p147
aS'/afs/cern.ch/work/s/ssevova/public/dark-photon-atlas/ntuples/user.ssevova.ZHyyD_v00.364104.Sherpa_221_NNPDF30NNLO_Zmumu_MAXHTPTV70_140_CFilterBVeto.e5271_s3126_r9364_p3870_MiniNtuple.root/user.ssevova.20994146._000002.MiniNtuple.root'
p148
asS'user.ssevova.ZHdarkPhoton_v00.364112.Sherpa_221_NNPDF30NNLO_Zmumu_MAXHTPTV500_1000.e5271_s3126_r9364_p3870_MiniNtuple.root'
p149
(lp150
S'/afs/cern.ch/work/s/ssevova/public/dark-photon-atlas/ntuples/user.ssevova.ZHdarkPhoton_v00.364112.Sherpa_221_NNPDF30NNLO_Zmumu_MAXHTPTV500_1000.e5271_s3126_r9364_p3870_MiniNtuple.root/user.ssevova.20994008._000001.MiniNtuple.root'
p151
aS'/afs/cern.ch/work/s/ssevova/public/dark-photon-atlas/ntuples/user.ssevova.ZHdarkPhoton_v00.364112.Sherpa_221_NNPDF30NNLO_Zmumu_MAXHTPTV500_1000.e5271_s3126_r9364_p3870_MiniNtuple.root/user.ssevova.20994008._000002.MiniNtuple.root'
p152
aS'/afs/cern.ch/work/s/ssevova/public/dark-photon-atlas/ntuples/user.ssevova.ZHdarkPhoton_v00.364112.Sherpa_221_NNPDF30NNLO_Zmumu_MAXHTPTV500_1000.e5271_s3126_r9364_p3870_MiniNtuple.root/user.ssevova.20994008._000003.MiniNtuple.root'
p153
aS'/afs/cern.ch/work/s/ssevova/public/dark-photon-atlas/ntuples/user.ssevova.ZHdarkPhoton_v00.364112.Sherpa_221_NNPDF30NNLO_Zmumu_MAXHTPTV500_1000.e5271_s3126_r9364_p3870_MiniNtuple.root/user.ssevova.20994008._000004.MiniNtuple.root'
p154
asS'user.ssevova.ZHdarkPhoton_v00.308093.Sherpa_221_NNPDF30NNLO_Zmm2jets_Min_N_TChannel.e5767_s3126_r9364_p3870_MiniNtuple.root'
p155
(lp156
S'/afs/cern.ch/work/s/ssevova/public/dark-photon-atlas/ntuples/user.ssevova.ZHdarkPhoton_v00.308093.Sherpa_221_NNPDF30NNLO_Zmm2jets_Min_N_TChannel.e5767_s3126_r9364_p3870_MiniNtuple.root/user.ssevova.20994016._000001.MiniNtuple.root'
p157
asS'user.ssevova.ZHdarkPhoton_v00.364111.Sherpa_221_NNPDF30NNLO_Zmumu_MAXHTPTV280_500_BFilter.e5271_s3126_r9364_p3870_MiniNtuple.root'
p158
(lp159
S'/afs/cern.ch/work/s/ssevova/public/dark-photon-atlas/ntuples/user.ssevova.ZHdarkPhoton_v00.364111.Sherpa_221_NNPDF30NNLO_Zmumu_MAXHTPTV280_500_BFilter.e5271_s3126_r9364_p3870_MiniNtuple.root/user.ssevova.20994004._000001.MiniNtuple.root'
p160
aS'/afs/cern.ch/work/s/ssevova/public/dark-photon-atlas/ntuples/user.ssevova.ZHdarkPhoton_v00.364111.Sherpa_221_NNPDF30NNLO_Zmumu_MAXHTPTV280_500_BFilter.e5271_s3126_r9364_p3870_MiniNtuple.root/user.ssevova.20994004._000002.MiniNtuple.root'
p161
asS'user.ssevova.ZHdarkPhoton_v00.364102.Sherpa_221_NNPDF30NNLO_Zmumu_MAXHTPTV0_70_BFilter.e5271_s3126_r9364_p3870_MiniNtuple.root'
p162
(lp163
S'/afs/cern.ch/work/s/ssevova/public/dark-photon-atlas/ntuples/user.ssevova.ZHdarkPhoton_v00.364102.Sherpa_221_NNPDF30NNLO_Zmumu_MAXHTPTV0_70_BFilter.e5271_s3126_r9364_p3870_MiniNtuple.root/user.ssevova.20993994._000001.MiniNtuple.root'
p164
aS'/afs/cern.ch/work/s/ssevova/public/dark-photon-atlas/ntuples/user.ssevova.ZHdarkPhoton_v00.364102.Sherpa_221_NNPDF30NNLO_Zmumu_MAXHTPTV0_70_BFilter.e5271_s3126_r9364_p3870_MiniNtuple.root/user.ssevova.20993994._000002.MiniNtuple.root'
p165
aS'/afs/cern.ch/work/s/ssevova/public/dark-photon-atlas/ntuples/user.ssevova.ZHdarkPhoton_v00.364102.Sherpa_221_NNPDF30NNLO_Zmumu_MAXHTPTV0_70_BFilter.e5271_s3126_r9364_p3870_MiniNtuple.root/user.ssevova.20993994._000003.MiniNtuple.root'
p166
asS'user.ssevova.ZHyyD_v00.364110.Sherpa_221_NNPDF30NNLO_Zmumu_MAXHTPTV280_500_CFilterBVeto.e5271_s3126_r9364_p3870_MiniNtuple.root'
p167
(lp168
S'/afs/cern.ch/work/s/ssevova/public/dark-photon-atlas/ntuples/user.ssevova.ZHyyD_v00.364110.Sherpa_221_NNPDF30NNLO_Zmumu_MAXHTPTV280_500_CFilterBVeto.e5271_s3126_r9364_p3870_MiniNtuple.root/user.ssevova.20994153._000001.MiniNtuple.root'
p169
aS'/afs/cern.ch/work/s/ssevova/public/dark-photon-atlas/ntuples/user.ssevova.ZHyyD_v00.364110.Sherpa_221_NNPDF30NNLO_Zmumu_MAXHTPTV280_500_CFilterBVeto.e5271_s3126_r9364_p3870_MiniNtuple.root/user.ssevova.20994153._000002.MiniNtuple.root'
p170
asS'user.ssevova.ZHdarkPhoton_v00.361600.PowhegPy8EG_CT10nloME_AZNLOCTEQ6L1_WWlvlv.e4616_s3126_r9364_p3870_MiniNtuple.root'
p171
(lp172
S'/afs/cern.ch/work/s/ssevova/public/dark-photon-atlas/ntuples/user.ssevova.ZHdarkPhoton_v00.361600.PowhegPy8EG_CT10nloME_AZNLOCTEQ6L1_WWlvlv.e4616_s3126_r9364_p3870_MiniNtuple.root/user.ssevova.20993972._000002.MiniNtuple.root'
p173
aS'/afs/cern.ch/work/s/ssevova/public/dark-photon-atlas/ntuples/user.ssevova.ZHdarkPhoton_v00.361600.PowhegPy8EG_CT10nloME_AZNLOCTEQ6L1_WWlvlv.e4616_s3126_r9364_p3870_MiniNtuple.root/user.ssevova.20993972._000003.MiniNtuple.root'
p174
aS'/afs/cern.ch/work/s/ssevova/public/dark-photon-atlas/ntuples/user.ssevova.ZHdarkPhoton_v00.361600.PowhegPy8EG_CT10nloME_AZNLOCTEQ6L1_WWlvlv.e4616_s3126_r9364_p3870_MiniNtuple.root/user.ssevova.20993972._000004.MiniNtuple.root'
p175
aS'/afs/cern.ch/work/s/ssevova/public/dark-photon-atlas/ntuples/user.ssevova.ZHdarkPhoton_v00.361600.PowhegPy8EG_CT10nloME_AZNLOCTEQ6L1_WWlvlv.e4616_s3126_r9364_p3870_MiniNtuple.root/user.ssevova.20993972._000005.MiniNtuple.root'
p176
asS'user.ssevova.ZHdarkPhoton_v00.345723.Sherpa_222_NNPDF30NNLO_ggllvvZZ.e6213_s3126_r9364_p3872_MiniNtuple.root'
p177
(lp178
S'/afs/cern.ch/work/s/ssevova/public/dark-photon-atlas/ntuples/user.ssevova.ZHdarkPhoton_v00.345723.Sherpa_222_NNPDF30NNLO_ggllvvZZ.e6213_s3126_r9364_p3872_MiniNtuple.root/user.ssevova.20993969._000001.MiniNtuple.root'
p179
asS'user.ssevova.ZHdarkPhoton_v00.308092.Sherpa_221_NNPDF30NNLO_Zee2jets_Min_N_TChannel.e5767_s3126_r9364_p3870_MiniNtuple.root'
p180
(lp181
S'/afs/cern.ch/work/s/ssevova/public/dark-photon-atlas/ntuples/user.ssevova.ZHdarkPhoton_v00.308092.Sherpa_221_NNPDF30NNLO_Zee2jets_Min_N_TChannel.e5767_s3126_r9364_p3870_MiniNtuple.root/user.ssevova.20994019._000001.MiniNtuple.root'
p182
asS'user.ssevova.ZHdarkPhoton_v00.345666.Sherpa_222_NNPDF30NNLO_llvvZZ.e6240_s3126_r9364_p3872_MiniNtuple.root'
p183
(lp184
S'/afs/cern.ch/work/s/ssevova/public/dark-photon-atlas/ntuples/user.ssevova.ZHdarkPhoton_v00.345666.Sherpa_222_NNPDF30NNLO_llvvZZ.e6240_s3126_r9364_p3872_MiniNtuple.root/user.ssevova.20993967._000001.MiniNtuple.root'
p185
aS'/afs/cern.ch/work/s/ssevova/public/dark-photon-atlas/ntuples/user.ssevova.ZHdarkPhoton_v00.345666.Sherpa_222_NNPDF30NNLO_llvvZZ.e6240_s3126_r9364_p3872_MiniNtuple.root/user.ssevova.20993967._000002.MiniNtuple.root'
p186
asS'user.ssevova.ZHdarkPhoton_v00.364105.Sherpa_221_NNPDF30NNLO_Zmumu_MAXHTPTV70_140_BFilter.e5271_s3126_r9364_p3870_MiniNtuple.root'
p187
(lp188
S'/afs/cern.ch/work/s/ssevova/public/dark-photon-atlas/ntuples/user.ssevova.ZHdarkPhoton_v00.364105.Sherpa_221_NNPDF30NNLO_Zmumu_MAXHTPTV70_140_BFilter.e5271_s3126_r9364_p3870_MiniNtuple.root/user.ssevova.20993997._000001.MiniNtuple.root'
p189
aS'/afs/cern.ch/work/s/ssevova/public/dark-photon-atlas/ntuples/user.ssevova.ZHdarkPhoton_v00.364105.Sherpa_221_NNPDF30NNLO_Zmumu_MAXHTPTV70_140_BFilter.e5271_s3126_r9364_p3870_MiniNtuple.root/user.ssevova.20993997._000002.MiniNtuple.root'
p190
aS'/afs/cern.ch/work/s/ssevova/public/dark-photon-atlas/ntuples/user.ssevova.ZHdarkPhoton_v00.364105.Sherpa_221_NNPDF30NNLO_Zmumu_MAXHTPTV70_140_BFilter.e5271_s3126_r9364_p3870_MiniNtuple.root/user.ssevova.20993997._000003.MiniNtuple.root'
p191
asS'user.ssevova.ZHdarkPhoton_v00.364245.Sherpa_222_NNPDF30NNLO_WZZ_5l1v_EW6.e5887_s3126_r9364_p3872_MiniNtuple.root'
p192
(lp193
S'/afs/cern.ch/work/s/ssevova/public/dark-photon-atlas/ntuples/user.ssevova.ZHdarkPhoton_v00.364245.Sherpa_222_NNPDF30NNLO_WZZ_5l1v_EW6.e5887_s3126_r9364_p3872_MiniNtuple.root/user.ssevova.20993978._000001.MiniNtuple.root'
p194
asS'user.ssevova.ZHdarkPhoton_v00.345718.Sherpa_222_NNPDF30NNLO_ggllvvWW.e6525_s3126_r9364_p3870_MiniNtuple.root'
p195
(lp196
S'/afs/cern.ch/work/s/ssevova/public/dark-photon-atlas/ntuples/user.ssevova.ZHdarkPhoton_v00.345718.Sherpa_222_NNPDF30NNLO_ggllvvWW.e6525_s3126_r9364_p3870_MiniNtuple.root/user.ssevova.20993973._000001.MiniNtuple.root'
p197
asS'user.ssevova.ZHdarkPhoton_v00.410659.PhPy8EG_A14_tchan_BW50_lept_antitop.e6671_s3126_r9364_p3870_MiniNtuple.root'
p198
(lp199
S'/afs/cern.ch/work/s/ssevova/public/dark-photon-atlas/ntuples/user.ssevova.ZHdarkPhoton_v00.410659.PhPy8EG_A14_tchan_BW50_lept_antitop.e6671_s3126_r9364_p3870_MiniNtuple.root/user.ssevova.20994034._000001.MiniNtuple.root'
p200
aS'/afs/cern.ch/work/s/ssevova/public/dark-photon-atlas/ntuples/user.ssevova.ZHdarkPhoton_v00.410659.PhPy8EG_A14_tchan_BW50_lept_antitop.e6671_s3126_r9364_p3870_MiniNtuple.root/user.ssevova.20994034._000002.MiniNtuple.root'
p201
aS'/afs/cern.ch/work/s/ssevova/public/dark-photon-atlas/ntuples/user.ssevova.ZHdarkPhoton_v00.410659.PhPy8EG_A14_tchan_BW50_lept_antitop.e6671_s3126_r9364_p3870_MiniNtuple.root/user.ssevova.20994034._000003.MiniNtuple.root'
p202
aS'/afs/cern.ch/work/s/ssevova/public/dark-photon-atlas/ntuples/user.ssevova.ZHdarkPhoton_v00.410659.PhPy8EG_A14_tchan_BW50_lept_antitop.e6671_s3126_r9364_p3870_MiniNtuple.root/user.ssevova.20994034._000004.MiniNtuple.root'
p203
aS'/afs/cern.ch/work/s/ssevova/public/dark-photon-atlas/ntuples/user.ssevova.ZHdarkPhoton_v00.410659.PhPy8EG_A14_tchan_BW50_lept_antitop.e6671_s3126_r9364_p3870_MiniNtuple.root/user.ssevova.20994034._000005.MiniNtuple.root'
p204
asS'user.ssevova.ZHdarkPhoton_v00.364244.Sherpa_222_NNPDF30NNLO_WWZ_2l4v_EW6.e5887_s3126_r9364_p3870_MiniNtuple.root'
p205
(lp206
S'/afs/cern.ch/work/s/ssevova/public/dark-photon-atlas/ntuples/user.ssevova.ZHdarkPhoton_v00.364244.Sherpa_222_NNPDF30NNLO_WWZ_2l4v_EW6.e5887_s3126_r9364_p3870_MiniNtuple.root/user.ssevova.20993977._000001.MiniNtuple.root'
p207
asS'user.ssevova.ZHdarkPhoton_v00.364247.Sherpa_222_NNPDF30NNLO_ZZZ_6l0v_EW6.e5887_s3126_r9364_p3872_MiniNtuple.root'
p208
(lp209
S'/afs/cern.ch/work/s/ssevova/public/dark-photon-atlas/ntuples/user.ssevova.ZHdarkPhoton_v00.364247.Sherpa_222_NNPDF30NNLO_ZZZ_6l0v_EW6.e5887_s3126_r9364_p3872_MiniNtuple.root/user.ssevova.20993980._000001.MiniNtuple.root'
p210
asS'user.ssevova.ZHyyD_v00.364109.Sherpa_221_NNPDF30NNLO_Zmumu_MAXHTPTV280_500_CVetoBVeto.e5271_s3126_r9364_p3870_MiniNtuple.root'
p211
(lp212
S'/afs/cern.ch/work/s/ssevova/public/dark-photon-atlas/ntuples/user.ssevova.ZHyyD_v00.364109.Sherpa_221_NNPDF30NNLO_Zmumu_MAXHTPTV280_500_CVetoBVeto.e5271_s3126_r9364_p3870_MiniNtuple.root/user.ssevova.20994161._000001.MiniNtuple.root'
p213
aS'/afs/cern.ch/work/s/ssevova/public/dark-photon-atlas/ntuples/user.ssevova.ZHyyD_v00.364109.Sherpa_221_NNPDF30NNLO_Zmumu_MAXHTPTV280_500_CVetoBVeto.e5271_s3126_r9364_p3870_MiniNtuple.root/user.ssevova.20994161._000002.MiniNtuple.root'
p214
asS'user.ssevova.ZHdarkPhoton_v00.410644.PowhegPythia8EvtGen_A14_singletop_schan_lept_top.e6527_s3126_r9364_p3870_MiniNtuple.root'
p215
(lp216
S'/afs/cern.ch/work/s/ssevova/public/dark-photon-atlas/ntuples/user.ssevova.ZHdarkPhoton_v00.410644.PowhegPythia8EvtGen_A14_singletop_schan_lept_top.e6527_s3126_r9364_p3870_MiniNtuple.root/user.ssevova.20994043._000011.MiniNtuple.root'
p217
aS'/afs/cern.ch/work/s/ssevova/public/dark-photon-atlas/ntuples/user.ssevova.ZHdarkPhoton_v00.410644.PowhegPythia8EvtGen_A14_singletop_schan_lept_top.e6527_s3126_r9364_p3870_MiniNtuple.root/user.ssevova.20994043._000013.MiniNtuple.root'
p218
as.